; Listing generated by Microsoft (R) Optimizing Compiler Version 19.34.31933.0 

	TITLE	Z:\Embbed_System\Ray\MyApplication\TouchGFX\build\Debug\obj\BitmapDatabase.obj
	.686P
	.XMM
	include listing.inc
	.model	flat

INCLUDELIB MSVCRTD
INCLUDELIB OLDNAMES

EXTRN	?image_ba@@3QBEB:BYTE				; image_ba
EXTRN	?image_bb@@3QBEB:BYTE				; image_bb
EXTRN	?image_bc@@3QBEB:BYTE				; image_bc
EXTRN	?image_bk@@3QBEB:BYTE				; image_bk
EXTRN	?image_blue_backgrounds_main_bg_480x272px@@3QBEB:BYTE ; image_blue_backgrounds_main_bg_480x272px
EXTRN	?image_blue_backgrounds_main_bg_texture_480x272px@@3QBEB:BYTE ; image_blue_backgrounds_main_bg_texture_480x272px
EXTRN	?image_blue_buttons_round_icon_button@@3QBEB:BYTE ; image_blue_buttons_round_icon_button
EXTRN	?image_blue_buttons_round_icon_button_pressed@@3QBEB:BYTE ; image_blue_buttons_round_icon_button_pressed
EXTRN	?image_bn@@3QBEB:BYTE				; image_bn
EXTRN	?image_bp@@3QBEB:BYTE				; image_bp
EXTRN	?image_br@@3QBEB:BYTE				; image_br
EXTRN	?image_ra@@3QBEB:BYTE				; image_ra
EXTRN	?image_rb@@3QBEB:BYTE				; image_rb
EXTRN	?image_rc@@3QBEB:BYTE				; image_rc
EXTRN	?image_rk@@3QBEB:BYTE				; image_rk
EXTRN	?image_rn@@3QBEB:BYTE				; image_rn
EXTRN	?image_rp@@3QBEB:BYTE				; image_rp
EXTRN	?image_rr@@3QBEB:BYTE				; image_rr
EXTRN	?image_rule@@3QBEB:BYTE				; image_rule
msvcjmc	SEGMENT
__CD417A16_concurrencysal@h DB 01H
__18C11F8D_sal@h DB 01H
__BD42D05E_vadefs@h DB 01H
__2DC9DF70_vcruntime@h DB 01H
__6569C2CA_corecrt@h DB 01H
__C3DF3361_assert@h DB 01H
__C54FBE38_stdint@h DB 01H
__0EB1E9B7_Config@hpp DB 01H
__9321F6EE_Types@hpp DB 01H
__8F02EC43_Bitmap@hpp DB 01H
__9F9BA2AD_BitmapDatabase@hpp DB 01H
__F3F4E2CD_BitmapDatabase@cpp DB 01H
msvcjmc	ENDS
CONST	SEGMENT
?bitmap_database@@3QBUBitmapData@Bitmap@touchgfx@@B DD FLAT:?image_ba@@3QBEB ; bitmap_database
	DD	00H
	DW	03cH
	DW	03cH
	DW	0dH
	DW	09H
	DW	022H
	DW	0402aH
	DD	FLAT:?image_bb@@3QBEB
	DD	00H
	DW	03cH
	DW	03cH
	DW	0dH
	DW	09H
	DW	022H
	DW	0402aH
	DD	FLAT:?image_bc@@3QBEB
	DD	00H
	DW	03cH
	DW	03cH
	DW	0dH
	DW	09H
	DW	022H
	DW	0402aH
	DD	FLAT:?image_bk@@3QBEB
	DD	00H
	DW	03cH
	DW	03cH
	DW	0dH
	DW	09H
	DW	022H
	DW	0402aH
	DD	FLAT:?image_blue_backgrounds_main_bg_480x272px@@3QBEB
	DD	00H
	DW	01e0H
	DW	0110H
	DW	00H
	DW	00H
	DW	01e0H
	DW	0110H
	DD	FLAT:?image_blue_backgrounds_main_bg_texture_480x272px@@3QBEB
	DD	00H
	DW	01e0H
	DW	0110H
	DW	00H
	DW	00H
	DW	01e0H
	DW	0110H
	DD	FLAT:?image_blue_buttons_round_icon_button@@3QBEB
	DD	00H
	DW	03cH
	DW	03cH
	DW	0dH
	DW	0bH
	DW	022H
	DW	04024H
	DD	FLAT:?image_blue_buttons_round_icon_button_pressed@@3QBEB
	DD	00H
	DW	03cH
	DW	03cH
	DW	0dH
	DW	0bH
	DW	022H
	DW	04024H
	DD	FLAT:?image_bn@@3QBEB
	DD	00H
	DW	03cH
	DW	03cH
	DW	0dH
	DW	09H
	DW	022H
	DW	0402aH
	DD	FLAT:?image_bp@@3QBEB
	DD	00H
	DW	03cH
	DW	03cH
	DW	0dH
	DW	09H
	DW	022H
	DW	0402aH
	DD	FLAT:?image_br@@3QBEB
	DD	00H
	DW	03cH
	DW	03cH
	DW	0dH
	DW	09H
	DW	022H
	DW	0402aH
	DD	FLAT:?image_ra@@3QBEB
	DD	00H
	DW	03cH
	DW	03cH
	DW	0dH
	DW	09H
	DW	022H
	DW	0402aH
	DD	FLAT:?image_rb@@3QBEB
	DD	00H
	DW	03cH
	DW	03cH
	DW	0dH
	DW	09H
	DW	022H
	DW	0402aH
	DD	FLAT:?image_rc@@3QBEB
	DD	00H
	DW	03cH
	DW	03cH
	DW	0dH
	DW	09H
	DW	022H
	DW	0402aH
	DD	FLAT:?image_rk@@3QBEB
	DD	00H
	DW	03cH
	DW	03cH
	DW	0dH
	DW	09H
	DW	022H
	DW	0402aH
	DD	FLAT:?image_rn@@3QBEB
	DD	00H
	DW	03cH
	DW	03cH
	DW	0dH
	DW	09H
	DW	022H
	DW	0402aH
	DD	FLAT:?image_rp@@3QBEB
	DD	00H
	DW	03cH
	DW	03cH
	DW	0dH
	DW	09H
	DW	022H
	DW	0402aH
	DD	FLAT:?image_rr@@3QBEB
	DD	00H
	DW	03cH
	DW	03cH
	DW	0dH
	DW	09H
	DW	022H
	DW	0402aH
	DD	FLAT:?image_rule@@3QBEB
	DD	00H
	DW	01e0H
	DW	0110H
	DW	00H
	DW	00H
	DW	01e0H
	DW	0110H
CONST	ENDS
PUBLIC	?getInstance@BitmapDatabase@@YAPBUBitmapData@Bitmap@touchgfx@@XZ ; BitmapDatabase::getInstance
PUBLIC	?getInstanceSize@BitmapDatabase@@YAGXZ		; BitmapDatabase::getInstanceSize
PUBLIC	__JustMyCode_Default
EXTRN	@__CheckForDebuggerJustMyCode@4:PROC
EXTRN	__RTC_CheckEsp:PROC
EXTRN	__RTC_InitBase:PROC
EXTRN	__RTC_Shutdown:PROC
;	COMDAT rtc$TMZ
rtc$TMZ	SEGMENT
__RTC_Shutdown.rtc$TMZ DD FLAT:__RTC_Shutdown
rtc$TMZ	ENDS
;	COMDAT rtc$IMZ
rtc$IMZ	SEGMENT
__RTC_InitBase.rtc$IMZ DD FLAT:__RTC_InitBase
rtc$IMZ	ENDS
; Function compile flags: /Odt
;	COMDAT __JustMyCode_Default
_TEXT	SEGMENT
__JustMyCode_Default PROC				; COMDAT
	push	ebp
	mov	ebp, esp
	pop	ebp
	ret	0
__JustMyCode_Default ENDP
_TEXT	ENDS
; Function compile flags: /Odtp /RTCsu /ZI
;	COMDAT ?getInstanceSize@BitmapDatabase@@YAGXZ
_TEXT	SEGMENT
?getInstanceSize@BitmapDatabase@@YAGXZ PROC		; BitmapDatabase::getInstanceSize, COMDAT
; File Z:\Embbed_System\Ray\MyApplication\TouchGFX\generated\images\src\BitmapDatabase.cpp
; Line 57
	push	ebp
	mov	ebp, esp
	sub	esp, 192				; 000000c0H
	push	ebx
	push	esi
	push	edi
	mov	edi, ebp
	xor	ecx, ecx
	mov	eax, -858993460				; ccccccccH
	rep stosd
	mov	ecx, OFFSET __F3F4E2CD_BitmapDatabase@cpp
	call	@__CheckForDebuggerJustMyCode@4
; Line 58
	mov	eax, 19					; 00000013H
; Line 59
	pop	edi
	pop	esi
	pop	ebx
	add	esp, 192				; 000000c0H
	cmp	ebp, esp
	call	__RTC_CheckEsp
	mov	esp, ebp
	pop	ebp
	ret	0
?getInstanceSize@BitmapDatabase@@YAGXZ ENDP		; BitmapDatabase::getInstanceSize
_TEXT	ENDS
; Function compile flags: /Odtp /RTCsu /ZI
;	COMDAT ?getInstance@BitmapDatabase@@YAPBUBitmapData@Bitmap@touchgfx@@XZ
_TEXT	SEGMENT
?getInstance@BitmapDatabase@@YAPBUBitmapData@Bitmap@touchgfx@@XZ PROC ; BitmapDatabase::getInstance, COMDAT
; File Z:\Embbed_System\Ray\MyApplication\TouchGFX\generated\images\src\BitmapDatabase.cpp
; Line 52
	push	ebp
	mov	ebp, esp
	sub	esp, 192				; 000000c0H
	push	ebx
	push	esi
	push	edi
	mov	edi, ebp
	xor	ecx, ecx
	mov	eax, -858993460				; ccccccccH
	rep stosd
	mov	ecx, OFFSET __F3F4E2CD_BitmapDatabase@cpp
	call	@__CheckForDebuggerJustMyCode@4
; Line 53
	mov	eax, OFFSET ?bitmap_database@@3QBUBitmapData@Bitmap@touchgfx@@B
; Line 54
	pop	edi
	pop	esi
	pop	ebx
	add	esp, 192				; 000000c0H
	cmp	ebp, esp
	call	__RTC_CheckEsp
	mov	esp, ebp
	pop	ebp
	ret	0
?getInstance@BitmapDatabase@@YAPBUBitmapData@Bitmap@touchgfx@@XZ ENDP ; BitmapDatabase::getInstance
_TEXT	ENDS
END
