; Listing generated by Microsoft (R) Optimizing Compiler Version 19.34.31933.0 

	TITLE	Z:\Embbed_System\Ray\MyApplication\TouchGFX\build\Debug\obj\image_Blue_Backgrounds_Main_bg_texture_480x272px.obj
	.686P
	.XMM
	include listing.inc
	.model	flat

INCLUDELIB MSVCRTD
INCLUDELIB OLDNAMES

PUBLIC	?image_blue_backgrounds_main_bg_texture_480x272px@@3QBEB ; image_blue_backgrounds_main_bg_texture_480x272px
msvcjmc	SEGMENT
__0EB1E9B7_Config@hpp DB 01H
__5BA15F57_image_Blue_Backgrounds_Main_bg_texture_480x272px@cpp DB 01H
msvcjmc	ENDS
CONST	SEGMENT
?image_blue_backgrounds_main_bg_texture_480x272px@@3QBEB DB 07eH ; image_blue_backgrounds_main_bg_texture_480x272px
	DB	0f7H
	DB	07eH
	DB	0f7H
	DB	09eH
	DB	0f7H
	DB	07eH
	DB	0f7H
	DB	07eH
	DB	0f7H
	DB	09eH
	DB	0f7H
	DB	07eH
	DB	0f7H
	DB	07eH
	DB	0f7H
	DB	09eH
	DB	0f7H
	DB	07eH
	DB	0f7H
	DB	07eH
	DB	0f7H
	DB	09eH
	DB	0f7H
	DB	07eH
	DB	0f7H
	DB	07eH
	DB	0f7H
	DB	09eH
	DB	0f7H
	DB	07eH
	DB	0f7H
	DB	07eH
	DB	0f7H
	DB	09eH
	DB	0f7H
	DB	07eH
	DB	0f7H
	DB	07eH
	DB	0f7H
	DB	09eH
	DB	0f7H
	DB	07eH
	DB	0f7H
	DB	07eH
	DB	0f7H
	DB	09eH
	DB	0f7H
	DB	07eH
	DB	0f7H
	DB	07eH
	DB	0f7H
	DB	09eH
	DB	0f7H
	DB	07eH
	DB	0f7H
	DB	07eH
	DB	0f7H
	DB	09eH
	DB	0f7H
	DB	07eH
	DB	0f7H
	DB	07eH
	DB	0f7H
	DB	09eH
	DB	0f7H
	DB	07eH
	DB	0f7H
	DB	07eH
	DB	0f7H
	DB	09eH
	DB	0f7H
	DB	07eH
	DB	0f7H
	DB	07eH
	DB	0f7H
	DB	09eH
	DB	0f7H
	DB	07eH
	DB	0f7H
	DB	07eH
	DB	0f7H
	DB	09eH
	DB	0f7H
	DB	07eH
	DB	0f7H
	DB	07eH
	DB	0f7H
	DB	09eH
	DB	0f7H
	DB	07eH
	DB	0f7H
	DB	07eH
	DB	0f7H
	DB	09eH
	DB	0f7H
	DB	07eH
	DB	0f7H
	DB	07eH
	DB	0f7H
	DB	09eH
	DB	0f7H
	DB	07eH
	DB	0f7H
	DB	07eH
	DB	0f7H
	DB	09eH
	DB	0f7H
	DB	07eH
	DB	0f7H
	DB	07eH
	DB	0f7H
	DB	09eH
	DB	0f7H
	DB	07eH
	DB	0f7H
	DB	07eH
	DB	0f7H
	DB	09eH
	DB	0f7H
	DB	07eH
	DB	0f7H
	DB	07eH
	DB	0f7H
	DB	09eH
	DB	0f7H
	DB	07eH
	DB	0f7H
	DB	07eH
	DB	0f7H
	DB	09eH
	DB	0f7H
	DB	07eH
	DB	0f7H
	DB	07eH
	DB	0f7H
	DB	09eH
	DB	0f7H
	DB	07eH
	DB	0f7H
	DB	07eH
	DB	0f7H
	DB	09eH
	DB	0f7H
	DB	07eH
	DB	0f7H
	DB	07eH
	DB	0f7H
	DB	09eH
	DB	0f7H
	DB	07eH
	DB	0f7H
	DB	07eH
	DB	0f7H
	DB	09eH
	DB	0f7H
	DB	07eH
	DB	0f7H
	DB	07eH
	DB	0f7H
	DB	09eH
	DB	0f7H
	DB	07eH
	DB	0f7H
	DB	07eH
	DB	0f7H
	DB	09eH
	DB	0f7H
	DB	07eH
	DB	0f7H
	DB	07eH
	DB	0f7H
	DB	09eH
	DB	0f7H
	DB	07eH
	DB	0f7H
	DB	07eH
	DB	0f7H
	DB	09eH
	DB	0f7H
	DB	07eH
	DB	0f7H
	DB	07eH
	DB	0f7H
	DB	09eH
	DB	0f7H
	DB	07eH
	DB	0f7H
	DB	07eH
	DB	0f7H
	DB	09eH
	DB	0f7H
	DB	07eH
	DB	0f7H
	DB	07eH
	DB	0f7H
	DB	09eH
	DB	0f7H
	DB	07eH
	DB	0f7H
	DB	07eH
	DB	0f7H
	DB	09eH
	DB	0f7H
	DB	07eH
	DB	0f7H
	DB	07eH
	DB	0f7H
	DB	09eH
	DB	0f7H
	DB	07eH
	DB	0f7H
	DB	07eH
	DB	0f7H
	DB	09eH
	DB	0f7H
	DB	07eH
	DB	0f7H
	DB	07eH
	DB	0f7H
	DB	09eH
	DB	0f7H
	DB	07eH
	DB	0f7H
	DB	07eH
	DB	0f7H
	DB	09eH
	DB	0f7H
	DB	07eH
	DB	0f7H
	DB	07eH
	DB	0f7H
	DB	09eH
	DB	0f7H
	DB	07eH
	DB	0f7H
	DB	07eH
	DB	0f7H
	DB	09eH
	DB	0f7H
	DB	07eH
	DB	0f7H
	DB	07eH
	DB	0f7H
	DB	09eH
	DB	0f7H
	DB	07eH
	DB	0f7H
	DB	07eH
	DB	0f7H
	DB	09eH
	DB	0f7H
	DB	07eH
	DB	0f7H
	DB	07eH
	DB	0f7H
	DB	09eH
	DB	0f7H
	DB	07eH
	DB	0f7H
	DB	07eH
	DB	0f7H
	DB	09eH
	DB	0f7H
	DB	07eH
	DB	0f7H
	DB	07eH
	DB	0f7H
	DB	09eH
	DB	0f7H
	DB	07eH
	DB	0f7H
	DB	07eH
	DB	0f7H
	DB	09eH
	DB	0f7H
	DB	07eH
	DB	0f7H
	DB	07eH
	DB	0f7H
	DB	09eH
	DB	0f7H
	DB	07eH
	DB	0f7H
	DB	07eH
	DB	0f7H
	DB	09eH
	DB	0f7H
	DB	07eH
	DB	0f7H
	DB	07eH
	DB	0f7H
	DB	09eH
	DB	0f7H
	DB	07eH
	DB	0f7H
	DB	07eH
	DB	0f7H
	DB	09eH
	DB	0f7H
	DB	07eH
	DB	0f7H
	DB	07eH
	DB	0f7H
	DB	09eH
	DB	0f7H
	DB	07eH
	DB	0f7H
	DB	07eH
	DB	0f7H
	DB	09eH
	DB	0f7H
	DB	07eH
	DB	0f7H
	DB	07eH
	DB	0f7H
	DB	09eH
	DB	0f7H
	DB	07eH
	DB	0f7H
	DB	07eH
	DB	0f7H
	DB	09eH
	DB	0f7H
	DB	07eH
	DB	0f7H
	DB	07eH
	DB	0f7H
	DB	09eH
	DB	0f7H
	DB	07eH
	DB	0f7H
	DB	07eH
	DB	0f7H
	DB	09eH
	DB	0f7H
	DB	07eH
	DB	0f7H
	DB	07eH
	DB	0f7H
	DB	09eH
	DB	0f7H
	DB	07eH
	DB	0f7H
	DB	07eH
	DB	0f7H
	DB	09eH
	DB	0f7H
	DB	07eH
	DB	0f7H
	DB	07eH
	DB	0f7H
	DB	09eH
	DB	0f7H
	DB	07eH
	DB	0f7H
	DB	07eH
	DB	0f7H
	DB	09eH
	DB	0f7H
	DB	07eH
	DB	0f7H
	DB	07eH
	DB	0f7H
	DB	09eH
	DB	0f7H
	DB	07eH
	DB	0f7H
	DB	07eH
	DB	0f7H
	DB	09eH
	DB	0f7H
	DB	07eH
	DB	0f7H
	DB	07eH
	DB	0f7H
	DB	09eH
	DB	0f7H
	DB	07eH
	DB	0f7H
	DB	07eH
	DB	0f7H
	DB	09eH
	DB	0f7H
	DB	07eH
	DB	0f7H
	DB	07eH
	DB	0f7H
	DB	09eH
	DB	0f7H
	DB	07eH
	DB	0f7H
	DB	07eH
	DB	0f7H
	DB	09eH
	DB	0f7H
	DB	07eH
	DB	0f7H
	DB	07eH
	DB	0f7H
	DB	09eH
	DB	0f7H
	DB	07eH
	DB	0f7H
	DB	07eH
	DB	0f7H
	DB	09eH
	DB	0f7H
	DB	07eH
	DB	0f7H
	DB	07eH
	DB	0f7H
	DB	09eH
	DB	0f7H
	DB	07eH
	DB	0f7H
	DB	07eH
	DB	0f7H
	DB	09eH
	DB	0f7H
	DB	07eH
	DB	0f7H
	DB	07eH
	DB	0f7H
	DB	09eH
	DB	0f7H
	DB	07eH
	DB	0f7H
	DB	07eH
	DB	0f7H
	DB	09eH
	DB	0f7H
	DB	07eH
	DB	0f7H
	DB	07eH
	DB	0f7H
	DB	09eH
	DB	0f7H
	DB	07eH
	DB	0f7H
	DB	07eH
	DB	0f7H
	DB	09eH
	DB	0f7H
	DB	07eH
	DB	0f7H
	DB	07eH
	DB	0f7H
	DB	09eH
	DB	0f7H
	DB	07eH
	DB	0f7H
	DB	07eH
	DB	0f7H
	DB	09eH
	DB	0f7H
	DB	07eH
	DB	0f7H
	DB	07eH
	DB	0f7H
	DB	09eH
	DB	0f7H
	DB	07eH
	DB	0f7H
	DB	07eH
	DB	0f7H
	DB	09eH
	DB	0f7H
	DB	07eH
	DB	0f7H
	DB	07eH
	DB	0f7H
	DB	09eH
	DB	0f7H
	DB	07eH
	DB	0f7H
	DB	07eH
	DB	0f7H
	DB	09eH
	DB	0f7H
	DB	07eH
	DB	0f7H
	DB	07eH
	DB	0f7H
	DB	09eH
	DB	0f7H
	DB	07eH
	DB	0f7H
	DB	07eH
	DB	0f7H
	DB	09eH
	DB	0f7H
	DB	07eH
	DB	0f7H
	DB	07eH
	DB	0f7H
	DB	09eH
	DB	0f7H
	DB	07eH
	DB	0f7H
	DB	07eH
	DB	0f7H
	DB	09eH
	DB	0f7H
	DB	07eH
	DB	0f7H
	DB	07eH
	DB	0f7H
	DB	09eH
	DB	0f7H
	DB	07eH
	DB	0f7H
	DB	07eH
	DB	0f7H
	DB	09eH
	DB	0f7H
	DB	07eH
	DB	0f7H
	DB	07eH
	DB	0f7H
	DB	09eH
	DB	0f7H
	DB	07eH
	DB	0f7H
	DB	07eH
	DB	0f7H
	DB	09eH
	DB	0f7H
	DB	07eH
	DB	0f7H
	DB	07eH
	DB	0f7H
	DB	09eH
	DB	0f7H
	DB	07eH
	DB	0f7H
	DB	07eH
	DB	0f7H
	DB	09eH
	DB	0f7H
	DB	07eH
	DB	0f7H
	DB	07eH
	DB	0f7H
	DB	09eH
	DB	0f7H
	DB	07eH
	DB	0f7H
	DB	07eH
	DB	0f7H
	DB	09eH
	DB	0f7H
	DB	07eH
	DB	0f7H
	DB	07eH
	DB	0f7H
	DB	09eH
	DB	0f7H
	DB	07eH
	DB	0f7H
	DB	07eH
	DB	0f7H
	DB	09eH
	DB	0f7H
	DB	07eH
	DB	0f7H
	DB	07eH
	DB	0f7H
	DB	09eH
	DB	0f7H
	DB	07eH
	DB	0f7H
	DB	07eH
	DB	0f7H
	DB	09eH
	DB	0f7H
	DB	07eH
	DB	0f7H
	DB	07eH
	DB	0f7H
	DB	09eH
	DB	0f7H
	DB	07eH
	DB	0f7H
	DB	07eH
	DB	0f7H
	DB	09eH
	DB	0f7H
	DB	07eH
	DB	0f7H
	DB	07eH
	DB	0f7H
	DB	09eH
	DB	0f7H
	DB	07eH
	DB	0f7H
	DB	07eH
	DB	0f7H
	DB	09eH
	DB	0f7H
	DB	07eH
	DB	0f7H
	DB	07eH
	DB	0f7H
	DB	09eH
	DB	0f7H
	DB	07eH
	DB	0f7H
	DB	07eH
	DB	0f7H
	DB	09eH
	DB	0f7H
	DB	07eH
	DB	0f7H
	DB	07eH
	DB	0f7H
	DB	09eH
	DB	0f7H
	DB	07eH
	DB	0f7H
	DB	07eH
	DB	0f7H
	DB	09eH
	DB	0f7H
	DB	07eH
	DB	0f7H
	DB	07eH
	DB	0f7H
	DB	09eH
	DB	0f7H
	DB	07eH
	DB	0f7H
	DB	07eH
	DB	0f7H
	DB	09eH
	DB	0f7H
	DB	07eH
	DB	0f7H
	DB	07eH
	DB	0f7H
	DB	09eH
	DB	0f7H
	DB	07eH
	DB	0f7H
	DB	07eH
	DB	0f7H
	DB	09eH
	DB	0f7H
	DB	07eH
	DB	0f7H
	DB	07eH
	DB	0f7H
	DB	09eH
	DB	0f7H
	DB	07eH
	DB	0f7H
	DB	07eH
	DB	0f7H
	DB	09eH
	DB	0f7H
	DB	07eH
	DB	0f7H
	DB	07eH
	DB	0f7H
	DB	09eH
	DB	0f7H
	DB	07eH
	DB	0f7H
	DB	07eH
	DB	0f7H
	DB	09eH
	DB	0f7H
	DB	07eH
	DB	0f7H
	DB	07eH
	DB	0f7H
	DB	09eH
	DB	0f7H
	DB	07eH
	DB	0f7H
	DB	07eH
	DB	0f7H
	DB	09eH
	DB	0f7H
	DB	07eH
	DB	0f7H
	DB	07eH
	DB	0f7H
	DB	09eH
	DB	0f7H
	DB	07eH
	DB	0f7H
	DB	07eH
	DB	0f7H
	DB	09eH
	DB	0f7H
	DB	07eH
	DB	0f7H
	DB	07eH
	DB	0f7H
	DB	09eH
	DB	0f7H
	DB	07eH
	DB	0f7H
	DB	07eH
	DB	0f7H
	DB	09eH
	DB	0f7H
	DB	07eH
	DB	0f7H
	DB	07eH
	DB	0f7H
	DB	09eH
	DB	0f7H
	DB	07eH
	DB	0f7H
	DB	07eH
	DB	0f7H
	DB	09eH
	DB	0f7H
	DB	07eH
	DB	0f7H
	DB	07eH
	DB	0f7H
	DB	09eH
	DB	0f7H
	DB	07eH
	DB	0f7H
	DB	07eH
	DB	0f7H
	DB	09eH
	DB	0f7H
	DB	07eH
	DB	0f7H
	DB	07eH
	DB	0f7H
	DB	09eH
	DB	0f7H
	DB	07eH
	DB	0f7H
	DB	07eH
	DB	0f7H
	DB	09eH
	DB	0f7H
	DB	07eH
	DB	0f7H
	DB	07eH
	DB	0f7H
	DB	09eH
	DB	0f7H
	DB	07eH
	DB	0f7H
	DB	07eH
	DB	0f7H
	DB	09eH
	DB	0f7H
	DB	07eH
	DB	0f7H
	DB	07eH
	DB	0f7H
	DB	09eH
	DB	0f7H
	DB	07eH
	DB	0f7H
	DB	07eH
	DB	0f7H
	DB	09eH
	DB	0f7H
	DB	07eH
	DB	0f7H
	DB	07eH
	DB	0f7H
	DB	09eH
	DB	0f7H
	DB	07eH
	DB	0f7H
	DB	07eH
	DB	0f7H
	DB	09eH
	DB	0f7H
	DB	07eH
	DB	0f7H
	DB	07eH
	DB	0f7H
	DB	09eH
	DB	0f7H
	DB	07eH
	DB	0f7H
	DB	07eH
	DB	0f7H
	DB	09eH
	DB	0f7H
	DB	07eH
	DB	0f7H
	DB	07eH
	DB	0f7H
	DB	09eH
	DB	0f7H
	DB	07eH
	DB	0f7H
	DB	07eH
	DB	0f7H
	DB	09eH
	DB	0f7H
	DB	07eH
	DB	0f7H
	DB	07eH
	DB	0f7H
	DB	09eH
	DB	0f7H
	DB	07eH
	DB	0f7H
	DB	07eH
	DB	0f7H
	DB	09eH
	DB	0f7H
	DB	07eH
	DB	0f7H
	DB	07eH
	DB	0f7H
	DB	09eH
	DB	0f7H
	DB	07eH
	DB	0f7H
	DB	07eH
	DB	0f7H
	DB	09eH
	DB	0f7H
	DB	07eH
	DB	0f7H
	DB	07eH
	DB	0f7H
	DB	09eH
	DB	0f7H
	DB	07eH
	DB	0f7H
	DB	07eH
	DB	0f7H
	DB	09eH
	DB	0f7H
	DB	07eH
	DB	0f7H
	DB	07eH
	DB	0f7H
	DB	09eH
	DB	0f7H
	DB	07eH
	DB	0f7H
	DB	07eH
	DB	0f7H
	DB	09eH
	DB	0f7H
	DB	07eH
	DB	0f7H
	DB	07eH
	DB	0f7H
	DB	09eH
	DB	0f7H
	DB	07eH
	DB	0f7H
	DB	07eH
	DB	0f7H
	DB	09eH
	DB	0f7H
	DB	07eH
	DB	0f7H
	DB	07eH
	DB	0f7H
	DB	09eH
	DB	0f7H
	DB	07eH
	DB	0f7H
	DB	07eH
	DB	0f7H
	DB	09eH
	DB	0f7H
	DB	07eH
	DB	0f7H
	DB	07eH
	DB	0f7H
	DB	09eH
	DB	0f7H
	DB	07eH
	DB	0f7H
	DB	07eH
	DB	0f7H
	DB	09eH
	DB	0f7H
	DB	07eH
	DB	0f7H
	DB	07eH
	DB	0f7H
	DB	09eH
	DB	0f7H
	DB	07eH
	DB	0f7H
	DB	07eH
	DB	0f7H
	DB	09eH
	DB	0f7H
	DB	07eH
	DB	0f7H
	DB	07eH
	DB	0f7H
	DB	09eH
	DB	0f7H
	DB	07eH
	DB	0f7H
	DB	07eH
	DB	0f7H
	DB	09eH
	DB	0f7H
	DB	07eH
	DB	0f7H
	DB	07eH
	DB	0f7H
	DB	09eH
	DB	0f7H
	DB	07eH
	DB	0f7H
	DB	07eH
	DB	0f7H
	DB	09eH
	DB	0f7H
	DB	07eH
	DB	0f7H
	DB	07eH
	DB	0f7H
	DB	09eH
	DB	0f7H
	DB	07eH
	DB	0f7H
	DB	07eH
	DB	0f7H
	DB	09eH
	DB	0f7H
	DB	07eH
	DB	0f7H
	DB	07eH
	DB	0f7H
	DB	09eH
	DB	0f7H
	DB	07eH
	DB	0f7H
	DB	07eH
	DB	0f7H
	DB	09eH
	DB	0f7H
	DB	07eH
	DB	0f7H
	DB	07eH
	DB	0f7H
	DB	09eH
	DB	0f7H
	DB	07eH
	DB	0f7H
	DB	07eH
	DB	0f7H
	DB	09eH
	DB	0f7H
	DB	07eH
	DB	0f7H
	DB	09eH
	DB	0f7H
	DB	09dH
	DB	0efH
	DB	07eH
	DB	0f7H
	DB	09eH
	DB	0f7H
	DB	07dH
	DB	0efH
	DB	09eH
	DB	0f7H
	DB	07eH
	DB	0f7H
	DB	09dH
	DB	0efH
	DB	07eH
	DB	0f7H
	DB	09eH
	DB	0f7H
	DB	09dH
	DB	0efH
	DB	07eH
	DB	0f7H
	DB	09eH
	DB	0f7H
	DB	07dH
	DB	0efH
	DB	09eH
	DB	0f7H
	DB	07eH
	DB	0f7H
	DB	09dH
	DB	0efH
	DB	07eH
	DB	0f7H
	DB	09eH
	DB	0f7H
	DB	09dH
	DB	0efH
	DB	07eH
	DB	0f7H
	DB	09eH
	DB	0f7H
	DB	07dH
	DB	0efH
	DB	09eH
	DB	0f7H
	DB	07eH
	DB	0f7H
	DB	09dH
	DB	0efH
	DB	07eH
	DB	0f7H
	DB	09eH
	DB	0f7H
	DB	09dH
	DB	0efH
	DB	07eH
	DB	0f7H
	DB	09eH
	DB	0f7H
	DB	07dH
	DB	0efH
	DB	09eH
	DB	0f7H
	DB	07eH
	DB	0f7H
	DB	09dH
	DB	0efH
	DB	07eH
	DB	0f7H
	DB	09eH
	DB	0f7H
	DB	09dH
	DB	0efH
	DB	07eH
	DB	0f7H
	DB	09eH
	DB	0f7H
	DB	07dH
	DB	0efH
	DB	09eH
	DB	0f7H
	DB	07eH
	DB	0f7H
	DB	09dH
	DB	0efH
	DB	07eH
	DB	0f7H
	DB	09eH
	DB	0f7H
	DB	09dH
	DB	0efH
	DB	07eH
	DB	0f7H
	DB	09eH
	DB	0f7H
	DB	07dH
	DB	0efH
	DB	09eH
	DB	0f7H
	DB	07eH
	DB	0f7H
	DB	09dH
	DB	0efH
	DB	07eH
	DB	0f7H
	DB	09eH
	DB	0f7H
	DB	09dH
	DB	0efH
	DB	07eH
	DB	0f7H
	DB	09eH
	DB	0f7H
	DB	07dH
	DB	0efH
	DB	09eH
	DB	0f7H
	DB	07eH
	DB	0f7H
	DB	09dH
	DB	0efH
	DB	07eH
	DB	0f7H
	DB	09eH
	DB	0f7H
	DB	09dH
	DB	0efH
	DB	07eH
	DB	0f7H
	DB	09eH
	DB	0f7H
	DB	07dH
	DB	0efH
	DB	09eH
	DB	0f7H
	DB	07eH
	DB	0f7H
	DB	09dH
	DB	0efH
	DB	07eH
	DB	0f7H
	DB	09eH
	DB	0f7H
	DB	09dH
	DB	0efH
	DB	07eH
	DB	0f7H
	DB	09eH
	DB	0f7H
	DB	07dH
	DB	0efH
	DB	09eH
	DB	0f7H
	DB	07eH
	DB	0f7H
	DB	09dH
	DB	0efH
	DB	07eH
	DB	0f7H
	DB	09eH
	DB	0f7H
	DB	09dH
	DB	0efH
	DB	07eH
	DB	0f7H
	DB	09eH
	DB	0f7H
	DB	07dH
	DB	0efH
	DB	09eH
	DB	0f7H
	DB	07eH
	DB	0f7H
	DB	09dH
	DB	0efH
	DB	07eH
	DB	0f7H
	DB	09eH
	DB	0f7H
	DB	09dH
	DB	0efH
	DB	07eH
	DB	0f7H
	DB	09eH
	DB	0f7H
	DB	07dH
	DB	0efH
	DB	09eH
	DB	0f7H
	DB	07eH
	DB	0f7H
	DB	09dH
	DB	0efH
	DB	07eH
	DB	0f7H
	DB	09eH
	DB	0f7H
	DB	09dH
	DB	0efH
	DB	07eH
	DB	0f7H
	DB	09eH
	DB	0f7H
	DB	07dH
	DB	0efH
	DB	09eH
	DB	0f7H
	DB	07eH
	DB	0f7H
	DB	09dH
	DB	0efH
	DB	07eH
	DB	0f7H
	DB	09eH
	DB	0f7H
	DB	09dH
	DB	0efH
	DB	07eH
	DB	0f7H
	DB	09eH
	DB	0f7H
	DB	07dH
	DB	0efH
	DB	09eH
	DB	0f7H
	DB	07eH
	DB	0f7H
	DB	09dH
	DB	0efH
	DB	07eH
	DB	0f7H
	DB	09eH
	DB	0f7H
	DB	09dH
	DB	0efH
	DB	07eH
	DB	0f7H
	DB	09eH
	DB	0f7H
	DB	07dH
	DB	0efH
	DB	09eH
	DB	0f7H
	DB	07eH
	DB	0f7H
	DB	09dH
	DB	0efH
	DB	07eH
	DB	0f7H
	DB	09eH
	DB	0f7H
	DB	09dH
	DB	0efH
	DB	07eH
	DB	0f7H
	DB	09eH
	DB	0f7H
	DB	07dH
	DB	0efH
	DB	09eH
	DB	0f7H
	DB	07eH
	DB	0f7H
	DB	09dH
	DB	0efH
	DB	07eH
	DB	0f7H
	DB	09eH
	DB	0f7H
	DB	09dH
	DB	0efH
	DB	07eH
	DB	0f7H
	DB	09eH
	DB	0f7H
	DB	07dH
	DB	0efH
	DB	09eH
	DB	0f7H
	DB	07eH
	DB	0f7H
	DB	09dH
	DB	0efH
	DB	07eH
	DB	0f7H
	DB	09eH
	DB	0f7H
	DB	09dH
	DB	0efH
	DB	07eH
	DB	0f7H
	DB	09eH
	DB	0f7H
	DB	07dH
	DB	0efH
	DB	09eH
	DB	0f7H
	DB	07eH
	DB	0f7H
	DB	09dH
	DB	0efH
	DB	07eH
	DB	0f7H
	DB	09eH
	DB	0f7H
	DB	09dH
	DB	0efH
	DB	07eH
	DB	0f7H
	DB	09eH
	DB	0f7H
	DB	07dH
	DB	0efH
	DB	09eH
	DB	0f7H
	DB	07eH
	DB	0f7H
	DB	09dH
	DB	0efH
	DB	07eH
	DB	0f7H
	DB	09eH
	DB	0f7H
	DB	09dH
	DB	0efH
	DB	07eH
	DB	0f7H
	DB	09eH
	DB	0f7H
	DB	07dH
	DB	0efH
	DB	09eH
	DB	0f7H
	DB	09eH
	DB	0f7H
	DB	07dH
	DB	0efH
	DB	09eH
	DB	0f7H
	DB	09eH
	DB	0f7H
	DB	07dH
	DB	0efH
	DB	09eH
	DB	0f7H
	DB	07eH
	DB	0f7H
	DB	09dH
	DB	0efH
	DB	07eH
	DB	0f7H
	DB	09eH
	DB	0f7H
	DB	09dH
	DB	0efH
	DB	07eH
	DB	0f7H
	DB	09eH
	DB	0f7H
	DB	07dH
	DB	0efH
	DB	09eH
	DB	0f7H
	DB	07eH
	DB	0f7H
	DB	09dH
	DB	0efH
	DB	07eH
	DB	0f7H
	DB	09eH
	DB	0f7H
	DB	09dH
	DB	0efH
	DB	07eH
	DB	0f7H
	DB	09eH
	DB	0f7H
	DB	07dH
	DB	0efH
	DB	09eH
	DB	0f7H
	DB	07eH
	DB	0f7H
	DB	09dH
	DB	0efH
	DB	07eH
	DB	0f7H
	DB	09eH
	DB	0f7H
	DB	09dH
	DB	0efH
	DB	07eH
	DB	0f7H
	DB	09eH
	DB	0f7H
	DB	07dH
	DB	0efH
	DB	09eH
	DB	0f7H
	DB	07eH
	DB	0f7H
	DB	09dH
	DB	0efH
	DB	07eH
	DB	0f7H
	DB	09eH
	DB	0f7H
	DB	09dH
	DB	0efH
	DB	07eH
	DB	0f7H
	DB	09eH
	DB	0f7H
	DB	07dH
	DB	0efH
	DB	09eH
	DB	0f7H
	DB	07eH
	DB	0f7H
	DB	09dH
	DB	0efH
	DB	07eH
	DB	0f7H
	DB	09eH
	DB	0f7H
	DB	09dH
	DB	0efH
	DB	07eH
	DB	0f7H
	DB	09eH
	DB	0f7H
	DB	07dH
	DB	0efH
	DB	09eH
	DB	0f7H
	DB	07eH
	DB	0f7H
	DB	09dH
	DB	0efH
	DB	07eH
	DB	0f7H
	DB	09eH
	DB	0f7H
	DB	09dH
	DB	0efH
	DB	07eH
	DB	0f7H
	DB	09eH
	DB	0f7H
	DB	07dH
	DB	0efH
	DB	09eH
	DB	0f7H
	DB	07eH
	DB	0f7H
	DB	09dH
	DB	0efH
	DB	07eH
	DB	0f7H
	DB	09eH
	DB	0f7H
	DB	09dH
	DB	0efH
	DB	07eH
	DB	0f7H
	DB	09eH
	DB	0f7H
	DB	07dH
	DB	0efH
	DB	09eH
	DB	0f7H
	DB	07eH
	DB	0f7H
	DB	09dH
	DB	0efH
	DB	07eH
	DB	0f7H
	DB	09eH
	DB	0f7H
	DB	09dH
	DB	0efH
	DB	07eH
	DB	0f7H
	DB	09eH
	DB	0f7H
	DB	07dH
	DB	0efH
	DB	09eH
	DB	0f7H
	DB	07eH
	DB	0f7H
	DB	09dH
	DB	0efH
	DB	07eH
	DB	0f7H
	DB	09eH
	DB	0f7H
	DB	09dH
	DB	0efH
	DB	07eH
	DB	0f7H
	DB	09eH
	DB	0f7H
	DB	07dH
	DB	0efH
	DB	09eH
	DB	0f7H
	DB	07eH
	DB	0f7H
	DB	09dH
	DB	0efH
	DB	07eH
	DB	0f7H
	DB	09eH
	DB	0f7H
	DB	09dH
	DB	0efH
	DB	07eH
	DB	0f7H
	DB	09eH
	DB	0f7H
	DB	07dH
	DB	0efH
	DB	09eH
	DB	0f7H
	DB	07eH
	DB	0f7H
	DB	09dH
	DB	0efH
	DB	07eH
	DB	0f7H
	DB	09eH
	DB	0f7H
	DB	09dH
	DB	0efH
	DB	07eH
	DB	0f7H
	DB	09eH
	DB	0f7H
	DB	07dH
	DB	0efH
	DB	09eH
	DB	0f7H
	DB	07eH
	DB	0f7H
	DB	09dH
	DB	0efH
	DB	07eH
	DB	0f7H
	DB	09eH
	DB	0f7H
	DB	09dH
	DB	0efH
	DB	07eH
	DB	0f7H
	DB	09eH
	DB	0f7H
	DB	07dH
	DB	0efH
	DB	09eH
	DB	0f7H
	DB	07eH
	DB	0f7H
	DB	09dH
	DB	0efH
	DB	07eH
	DB	0f7H
	DB	09eH
	DB	0f7H
	DB	09dH
	DB	0efH
	DB	07eH
	DB	0f7H
	DB	09eH
	DB	0f7H
	DB	07dH
	DB	0efH
	DB	09eH
	DB	0f7H
	DB	07eH
	DB	0f7H
	DB	09dH
	DB	0efH
	DB	07eH
	DB	0f7H
	DB	09eH
	DB	0f7H
	DB	09dH
	DB	0efH
	DB	07eH
	DB	0f7H
	DB	09eH
	DB	0f7H
	DB	07dH
	DB	0efH
	DB	09eH
	DB	0f7H
	DB	07eH
	DB	0f7H
	DB	09dH
	DB	0efH
	DB	07eH
	DB	0f7H
	DB	09eH
	DB	0f7H
	DB	09dH
	DB	0efH
	DB	07eH
	DB	0f7H
	DB	09eH
	DB	0f7H
	DB	07dH
	DB	0efH
	DB	09eH
	DB	0f7H
	DB	07eH
	DB	0f7H
	DB	09dH
	DB	0efH
	DB	07eH
	DB	0f7H
	DB	09eH
	DB	0f7H
	DB	09dH
	DB	0efH
	DB	07eH
	DB	0f7H
	DB	09eH
	DB	0f7H
	DB	07dH
	DB	0efH
	DB	09eH
	DB	0f7H
	DB	07eH
	DB	0f7H
	DB	09dH
	DB	0efH
	DB	07eH
	DB	0f7H
	DB	09eH
	DB	0f7H
	DB	09dH
	DB	0efH
	DB	07eH
	DB	0f7H
	DB	09eH
	DB	0f7H
	DB	07dH
	DB	0efH
	DB	09eH
	DB	0f7H
	DB	07eH
	DB	0f7H
	DB	09dH
	DB	0efH
	DB	07eH
	DB	0f7H
	DB	09eH
	DB	0f7H
	DB	09dH
	DB	0efH
	DB	07eH
	DB	0f7H
	DB	09eH
	DB	0f7H
	DB	07dH
	DB	0efH
	DB	09eH
	DB	0f7H
	DB	07eH
	DB	0f7H
	DB	09dH
	DB	0efH
	DB	07eH
	DB	0f7H
	DB	09eH
	DB	0f7H
	DB	09dH
	DB	0efH
	DB	07eH
	DB	0f7H
	DB	09eH
	DB	0f7H
	DB	07dH
	DB	0efH
	DB	09eH
	DB	0f7H
	DB	07eH
	DB	0f7H
	DB	09dH
	DB	0efH
	DB	07eH
	DB	0f7H
	DB	09eH
	DB	0f7H
	DB	09dH
	DB	0efH
	DB	07eH
	DB	0f7H
	DB	09eH
	DB	0f7H
	DB	07dH
	DB	0efH
	DB	09eH
	DB	0f7H
	DB	07eH
	DB	0f7H
	DB	09dH
	DB	0efH
	DB	07eH
	DB	0f7H
	DB	09eH
	DB	0f7H
	DB	09dH
	DB	0efH
	DB	07eH
	DB	0f7H
	DB	09eH
	DB	0f7H
	DB	07dH
	DB	0efH
	DB	09eH
	DB	0f7H
	DB	07eH
	DB	0f7H
	DB	09dH
	DB	0efH
	DB	07eH
	DB	0f7H
	DB	09eH
	DB	0f7H
	DB	09dH
	DB	0efH
	DB	07eH
	DB	0f7H
	DB	09eH
	DB	0f7H
	DB	07dH
	DB	0efH
	DB	09eH
	DB	0f7H
	DB	07eH
	DB	0f7H
	DB	09dH
	DB	0efH
	DB	07eH
	DB	0f7H
	DB	09eH
	DB	0f7H
	DB	09dH
	DB	0efH
	DB	07eH
	DB	0f7H
	DB	09eH
	DB	0f7H
	DB	07dH
	DB	0efH
	DB	09eH
	DB	0f7H
	DB	07eH
	DB	0f7H
	DB	09dH
	DB	0efH
	DB	07eH
	DB	0f7H
	DB	09eH
	DB	0f7H
	DB	09dH
	DB	0efH
	DB	07eH
	DB	0f7H
	DB	09eH
	DB	0f7H
	DB	07dH
	DB	0efH
	DB	09eH
	DB	0f7H
	DB	07eH
	DB	0f7H
	DB	09dH
	DB	0efH
	DB	07eH
	DB	0f7H
	DB	09eH
	DB	0f7H
	DB	09dH
	DB	0efH
	DB	07eH
	DB	0f7H
	DB	09eH
	DB	0f7H
	DB	07dH
	DB	0efH
	DB	09eH
	DB	0f7H
	DB	07eH
	DB	0f7H
	DB	09dH
	DB	0efH
	DB	07eH
	DB	0f7H
	DB	09eH
	DB	0f7H
	DB	09dH
	DB	0efH
	DB	07eH
	DB	0f7H
	DB	09eH
	DB	0f7H
	DB	07dH
	DB	0efH
	DB	09eH
	DB	0f7H
	DB	07eH
	DB	0f7H
	DB	09dH
	DB	0efH
	DB	07eH
	DB	0f7H
	DB	09eH
	DB	0f7H
	DB	09dH
	DB	0efH
	DB	07eH
	DB	0f7H
	DB	09eH
	DB	0f7H
	DB	07dH
	DB	0efH
	DB	09eH
	DB	0f7H
	DB	07eH
	DB	0f7H
	DB	09dH
	DB	0efH
	DB	07eH
	DB	0f7H
	DB	09eH
	DB	0f7H
	DB	09dH
	DB	0efH
	DB	07eH
	DB	0f7H
	DB	09eH
	DB	0f7H
	DB	07dH
	DB	0efH
	DB	09eH
	DB	0f7H
	DB	07eH
	DB	0f7H
	DB	09dH
	DB	0efH
	DB	07eH
	DB	0f7H
	DB	09eH
	DB	0f7H
	DB	09dH
	DB	0efH
	DB	07eH
	DB	0f7H
	DB	09eH
	DB	0f7H
	DB	07dH
	DB	0efH
	DB	09eH
	DB	0f7H
	DB	07eH
	DB	0f7H
	DB	09dH
	DB	0efH
	DB	07eH
	DB	0f7H
	DB	09eH
	DB	0f7H
	DB	09dH
	DB	0efH
	DB	07eH
	DB	0f7H
	DB	09eH
	DB	0f7H
	DB	07dH
	DB	0efH
	DB	09eH
	DB	0f7H
	DB	07eH
	DB	0f7H
	DB	09dH
	DB	0efH
	DB	07eH
	DB	0f7H
	DB	09eH
	DB	0f7H
	DB	09dH
	DB	0efH
	DB	07eH
	DB	0f7H
	DB	09eH
	DB	0f7H
	DB	07dH
	DB	0efH
	DB	09eH
	DB	0f7H
	DB	07eH
	DB	0f7H
	DB	09dH
	DB	0efH
	DB	07eH
	DB	0f7H
	DB	09eH
	DB	0f7H
	DB	09dH
	DB	0efH
	DB	07eH
	DB	0f7H
	DB	09eH
	DB	0f7H
	DB	07dH
	DB	0efH
	DB	09eH
	DB	0f7H
	DB	07eH
	DB	0f7H
	DB	09dH
	DB	0efH
	DB	07eH
	DB	0f7H
	DB	09eH
	DB	0f7H
	DB	09dH
	DB	0efH
	DB	07eH
	DB	0f7H
	DB	09eH
	DB	0f7H
	DB	07dH
	DB	0efH
	DB	09eH
	DB	0f7H
	DB	07eH
	DB	0f7H
	DB	09dH
	DB	0efH
	DB	07eH
	DB	0f7H
	DB	09eH
	DB	0f7H
	DB	09dH
	DB	0efH
	DB	07eH
	DB	0f7H
	DB	07eH
	DB	0f7H
	DB	09dH
	DB	0efH
	DB	07eH
	DB	0f7H
	DB	09dH
	DB	0efH
	DB	07eH
	DB	0f7H
	DB	09eH
	DB	0f7H
	DB	07dH
	DB	0efH
	DB	09eH
	DB	0f7H
	DB	07eH
	DB	0f7H
	DB	09dH
	DB	0efH
	DB	07eH
	DB	0f7H
	DB	09eH
	DB	0f7H
	DB	07dH
	DB	0efH
	DB	07eH
	DB	0f7H
	DB	09eH
	DB	0f7H
	DB	07dH
	DB	0efH
	DB	09eH
	DB	0f7H
	DB	07eH
	DB	0f7H
	DB	09dH
	DB	0efH
	DB	07eH
	DB	0f7H
	DB	09eH
	DB	0f7H
	DB	07dH
	DB	0efH
	DB	07eH
	DB	0f7H
	DB	09eH
	DB	0f7H
	DB	07dH
	DB	0efH
	DB	09eH
	DB	0f7H
	DB	07eH
	DB	0f7H
	DB	09dH
	DB	0efH
	DB	07eH
	DB	0f7H
	DB	09eH
	DB	0f7H
	DB	07dH
	DB	0efH
	DB	07eH
	DB	0f7H
	DB	09eH
	DB	0f7H
	DB	07dH
	DB	0efH
	DB	09eH
	DB	0f7H
	DB	07eH
	DB	0f7H
	DB	09dH
	DB	0efH
	DB	07eH
	DB	0f7H
	DB	09eH
	DB	0f7H
	DB	07dH
	DB	0efH
	DB	07eH
	DB	0f7H
	DB	09eH
	DB	0f7H
	DB	07dH
	DB	0efH
	DB	09eH
	DB	0f7H
	DB	07eH
	DB	0f7H
	DB	09dH
	DB	0efH
	DB	07eH
	DB	0f7H
	DB	09eH
	DB	0f7H
	DB	07dH
	DB	0efH
	DB	07eH
	DB	0f7H
	DB	09eH
	DB	0f7H
	DB	07dH
	DB	0efH
	DB	09eH
	DB	0f7H
	DB	07eH
	DB	0f7H
	DB	09dH
	DB	0efH
	DB	07eH
	DB	0f7H
	DB	09eH
	DB	0f7H
	DB	07dH
	DB	0efH
	DB	07eH
	DB	0f7H
	DB	09eH
	DB	0f7H
	DB	07dH
	DB	0efH
	DB	09eH
	DB	0f7H
	DB	07eH
	DB	0f7H
	DB	09dH
	DB	0efH
	DB	07eH
	DB	0f7H
	DB	09eH
	DB	0f7H
	DB	07dH
	DB	0efH
	DB	07eH
	DB	0f7H
	DB	09eH
	DB	0f7H
	DB	07dH
	DB	0efH
	DB	09eH
	DB	0f7H
	DB	07eH
	DB	0f7H
	DB	09dH
	DB	0efH
	DB	07eH
	DB	0f7H
	DB	09eH
	DB	0f7H
	DB	07dH
	DB	0efH
	DB	07eH
	DB	0f7H
	DB	09eH
	DB	0f7H
	DB	07dH
	DB	0efH
	DB	09eH
	DB	0f7H
	DB	07eH
	DB	0f7H
	DB	09dH
	DB	0efH
	DB	07eH
	DB	0f7H
	DB	09eH
	DB	0f7H
	DB	07dH
	DB	0efH
	DB	07eH
	DB	0f7H
	DB	09eH
	DB	0f7H
	DB	07dH
	DB	0efH
	DB	09eH
	DB	0f7H
	DB	07eH
	DB	0f7H
	DB	09dH
	DB	0efH
	DB	07eH
	DB	0f7H
	DB	09eH
	DB	0f7H
	DB	07dH
	DB	0efH
	DB	07eH
	DB	0f7H
	DB	09eH
	DB	0f7H
	DB	07dH
	DB	0efH
	DB	09eH
	DB	0f7H
	DB	07eH
	DB	0f7H
	DB	09dH
	DB	0efH
	DB	07eH
	DB	0f7H
	DB	09eH
	DB	0f7H
	DB	07dH
	DB	0efH
	DB	07eH
	DB	0f7H
	DB	09eH
	DB	0f7H
	DB	07dH
	DB	0efH
	DB	09eH
	DB	0f7H
	DB	07eH
	DB	0f7H
	DB	09dH
	DB	0efH
	DB	07eH
	DB	0f7H
	DB	09eH
	DB	0f7H
	DB	07dH
	DB	0efH
	DB	07eH
	DB	0f7H
	DB	09eH
	DB	0f7H
	DB	07dH
	DB	0efH
	DB	09eH
	DB	0f7H
	DB	07eH
	DB	0f7H
	DB	09dH
	DB	0efH
	DB	07eH
	DB	0f7H
	DB	09eH
	DB	0f7H
	DB	07dH
	DB	0efH
	DB	07eH
	DB	0f7H
	DB	09eH
	DB	0f7H
	DB	07dH
	DB	0efH
	DB	09eH
	DB	0f7H
	DB	07eH
	DB	0f7H
	DB	09dH
	DB	0efH
	DB	07eH
	DB	0f7H
	DB	09eH
	DB	0f7H
	DB	07dH
	DB	0efH
	DB	07eH
	DB	0f7H
	DB	09eH
	DB	0f7H
	DB	07dH
	DB	0efH
	DB	09eH
	DB	0f7H
	DB	07eH
	DB	0f7H
	DB	09dH
	DB	0efH
	DB	07eH
	DB	0f7H
	DB	09eH
	DB	0f7H
	DB	07dH
	DB	0efH
	DB	07eH
	DB	0f7H
	DB	09eH
	DB	0f7H
	DB	07dH
	DB	0efH
	DB	09eH
	DB	0f7H
	DB	07eH
	DB	0f7H
	DB	09dH
	DB	0efH
	DB	07eH
	DB	0f7H
	DB	09eH
	DB	0f7H
	DB	07dH
	DB	0efH
	DB	07eH
	DB	0f7H
	DB	09eH
	DB	0f7H
	DB	07dH
	DB	0efH
	DB	09eH
	DB	0f7H
	DB	07eH
	DB	0f7H
	DB	09dH
	DB	0efH
	DB	07eH
	DB	0f7H
	DB	09eH
	DB	0f7H
	DB	07dH
	DB	0efH
	DB	07eH
	DB	0f7H
	DB	09eH
	DB	0f7H
	DB	07dH
	DB	0efH
	DB	09eH
	DB	0f7H
	DB	07eH
	DB	0f7H
	DB	09dH
	DB	0efH
	DB	07eH
	DB	0f7H
	DB	09eH
	DB	0f7H
	DB	07dH
	DB	0efH
	DB	07eH
	DB	0f7H
	DB	09eH
	DB	0f7H
	DB	07dH
	DB	0efH
	DB	09eH
	DB	0f7H
	DB	07eH
	DB	0f7H
	DB	07dH
	DB	0efH
	DB	09eH
	DB	0f7H
	DB	07eH
	DB	0f7H
	DB	07dH
	DB	0efH
	DB	09eH
	DB	0f7H
	DB	07eH
	DB	0f7H
	DB	09dH
	DB	0efH
	DB	07eH
	DB	0f7H
	DB	09eH
	DB	0f7H
	DB	07dH
	DB	0efH
	DB	07eH
	DB	0f7H
	DB	09eH
	DB	0f7H
	DB	07dH
	DB	0efH
	DB	09eH
	DB	0f7H
	DB	07eH
	DB	0f7H
	DB	09dH
	DB	0efH
	DB	07eH
	DB	0f7H
	DB	09eH
	DB	0f7H
	DB	07dH
	DB	0efH
	DB	07eH
	DB	0f7H
	DB	09eH
	DB	0f7H
	DB	07dH
	DB	0efH
	DB	09eH
	DB	0f7H
	DB	07eH
	DB	0f7H
	DB	09dH
	DB	0efH
	DB	07eH
	DB	0f7H
	DB	09eH
	DB	0f7H
	DB	07dH
	DB	0efH
	DB	07eH
	DB	0f7H
	DB	09eH
	DB	0f7H
	DB	07dH
	DB	0efH
	DB	09eH
	DB	0f7H
	DB	07eH
	DB	0f7H
	DB	09dH
	DB	0efH
	DB	07eH
	DB	0f7H
	DB	09eH
	DB	0f7H
	DB	07dH
	DB	0efH
	DB	07eH
	DB	0f7H
	DB	09eH
	DB	0f7H
	DB	07dH
	DB	0efH
	DB	09eH
	DB	0f7H
	DB	07eH
	DB	0f7H
	DB	09dH
	DB	0efH
	DB	07eH
	DB	0f7H
	DB	09eH
	DB	0f7H
	DB	07dH
	DB	0efH
	DB	07eH
	DB	0f7H
	DB	09eH
	DB	0f7H
	DB	07dH
	DB	0efH
	DB	09eH
	DB	0f7H
	DB	07eH
	DB	0f7H
	DB	09dH
	DB	0efH
	DB	07eH
	DB	0f7H
	DB	09eH
	DB	0f7H
	DB	07dH
	DB	0efH
	DB	07eH
	DB	0f7H
	DB	09eH
	DB	0f7H
	DB	07dH
	DB	0efH
	DB	09eH
	DB	0f7H
	DB	07eH
	DB	0f7H
	DB	09dH
	DB	0efH
	DB	07eH
	DB	0f7H
	DB	09eH
	DB	0f7H
	DB	07dH
	DB	0efH
	DB	07eH
	DB	0f7H
	DB	09eH
	DB	0f7H
	DB	07dH
	DB	0efH
	DB	09eH
	DB	0f7H
	DB	07eH
	DB	0f7H
	DB	09dH
	DB	0efH
	DB	07eH
	DB	0f7H
	DB	09eH
	DB	0f7H
	DB	07dH
	DB	0efH
	DB	07eH
	DB	0f7H
	DB	09eH
	DB	0f7H
	DB	07dH
	DB	0efH
	DB	09eH
	DB	0f7H
	DB	07eH
	DB	0f7H
	DB	09dH
	DB	0efH
	DB	07eH
	DB	0f7H
	DB	09eH
	DB	0f7H
	DB	07dH
	DB	0efH
	DB	07eH
	DB	0f7H
	DB	09eH
	DB	0f7H
	DB	07dH
	DB	0efH
	DB	09eH
	DB	0f7H
	DB	07eH
	DB	0f7H
	DB	09dH
	DB	0efH
	DB	07eH
	DB	0f7H
	DB	09eH
	DB	0f7H
	DB	07dH
	DB	0efH
	DB	07eH
	DB	0f7H
	DB	09eH
	DB	0f7H
	DB	07dH
	DB	0efH
	DB	09eH
	DB	0f7H
	DB	07eH
	DB	0f7H
	DB	09dH
	DB	0efH
	DB	07eH
	DB	0f7H
	DB	09eH
	DB	0f7H
	DB	07dH
	DB	0efH
	DB	07eH
	DB	0f7H
	DB	09eH
	DB	0f7H
	DB	07dH
	DB	0efH
	DB	09eH
	DB	0f7H
	DB	07eH
	DB	0f7H
	DB	09dH
	DB	0efH
	DB	07eH
	DB	0f7H
	DB	09eH
	DB	0f7H
	DB	07dH
	DB	0efH
	DB	07eH
	DB	0f7H
	DB	09eH
	DB	0f7H
	DB	07dH
	DB	0efH
	DB	09eH
	DB	0f7H
	DB	07eH
	DB	0f7H
	DB	09dH
	DB	0efH
	DB	07eH
	DB	0f7H
	DB	09eH
	DB	0f7H
	DB	07dH
	DB	0efH
	DB	07eH
	DB	0f7H
	DB	09eH
	DB	0f7H
	DB	07dH
	DB	0efH
	DB	09eH
	DB	0f7H
	DB	07eH
	DB	0f7H
	DB	09dH
	DB	0efH
	DB	07eH
	DB	0f7H
	DB	09eH
	DB	0f7H
	DB	07dH
	DB	0efH
	DB	07eH
	DB	0f7H
	DB	09eH
	DB	0f7H
	DB	07dH
	DB	0efH
	DB	09eH
	DB	0f7H
	DB	07eH
	DB	0f7H
	DB	09dH
	DB	0efH
	DB	07eH
	DB	0f7H
	DB	09eH
	DB	0f7H
	DB	07dH
	DB	0efH
	DB	07eH
	DB	0f7H
	DB	09eH
	DB	0f7H
	DB	07dH
	DB	0efH
	DB	09eH
	DB	0f7H
	DB	07eH
	DB	0f7H
	DB	09dH
	DB	0efH
	DB	07eH
	DB	0f7H
	DB	09eH
	DB	0f7H
	DB	07dH
	DB	0efH
	DB	07eH
	DB	0f7H
	DB	09eH
	DB	0f7H
	DB	07dH
	DB	0efH
	DB	09eH
	DB	0f7H
	DB	07eH
	DB	0f7H
	DB	09dH
	DB	0efH
	DB	07eH
	DB	0f7H
	DB	09eH
	DB	0f7H
	DB	07dH
	DB	0efH
	DB	07eH
	DB	0f7H
	DB	09eH
	DB	0f7H
	DB	07dH
	DB	0efH
	DB	09eH
	DB	0f7H
	DB	07eH
	DB	0f7H
	DB	09dH
	DB	0efH
	DB	07eH
	DB	0f7H
	DB	09eH
	DB	0f7H
	DB	07dH
	DB	0efH
	DB	07eH
	DB	0f7H
	DB	09eH
	DB	0f7H
	DB	07dH
	DB	0efH
	DB	09eH
	DB	0f7H
	DB	07eH
	DB	0f7H
	DB	09dH
	DB	0efH
	DB	07eH
	DB	0f7H
	DB	09eH
	DB	0f7H
	DB	07dH
	DB	0efH
	DB	07eH
	DB	0f7H
	DB	09eH
	DB	0f7H
	DB	07dH
	DB	0efH
	DB	09eH
	DB	0f7H
	DB	07eH
	DB	0f7H
	DB	09dH
	DB	0efH
	DB	07eH
	DB	0f7H
	DB	09eH
	DB	0f7H
	DB	07dH
	DB	0efH
	DB	07eH
	DB	0f7H
	DB	09eH
	DB	0f7H
	DB	07dH
	DB	0efH
	DB	09eH
	DB	0f7H
	DB	07eH
	DB	0f7H
	DB	09dH
	DB	0efH
	DB	07eH
	DB	0f7H
	DB	09eH
	DB	0f7H
	DB	07dH
	DB	0efH
	DB	07eH
	DB	0f7H
	DB	09eH
	DB	0f7H
	DB	07dH
	DB	0efH
	DB	09eH
	DB	0f7H
	DB	07eH
	DB	0f7H
	DB	09dH
	DB	0efH
	DB	07eH
	DB	0f7H
	DB	09eH
	DB	0f7H
	DB	07dH
	DB	0efH
	DB	07eH
	DB	0f7H
	DB	09eH
	DB	0f7H
	DB	07dH
	DB	0efH
	DB	09eH
	DB	0f7H
	DB	07eH
	DB	0f7H
	DB	09dH
	DB	0efH
	DB	07eH
	DB	0f7H
	DB	09eH
	DB	0f7H
	DB	07dH
	DB	0efH
	DB	07eH
	DB	0f7H
	DB	09eH
	DB	0f7H
	DB	07dH
	DB	0efH
	DB	09eH
	DB	0f7H
	DB	07eH
	DB	0f7H
	DB	09dH
	DB	0efH
	DB	07eH
	DB	0f7H
	DB	09eH
	DB	0f7H
	DB	07dH
	DB	0efH
	DB	07eH
	DB	0f7H
	DB	09eH
	DB	0f7H
	DB	07dH
	DB	0efH
	DB	09eH
	DB	0f7H
	DB	07eH
	DB	0f7H
	DB	09dH
	DB	0efH
	DB	07eH
	DB	0f7H
	DB	09eH
	DB	0f7H
	DB	07dH
	DB	0efH
	DB	07eH
	DB	0f7H
	DB	09eH
	DB	0f7H
	DB	07dH
	DB	0efH
	DB	09eH
	DB	0f7H
	DB	07eH
	DB	0f7H
	DB	09dH
	DB	0efH
	DB	07eH
	DB	0f7H
	DB	09eH
	DB	0f7H
	DB	07dH
	DB	0efH
	DB	07eH
	DB	0f7H
	DB	09eH
	DB	0f7H
	DB	07dH
	DB	0efH
	DB	09eH
	DB	0f7H
	DB	07eH
	DB	0f7H
	DB	09dH
	DB	0efH
	DB	07eH
	DB	0f7H
	DB	09eH
	DB	0f7H
	DB	07dH
	DB	0efH
	DB	07eH
	DB	0f7H
	DB	09eH
	DB	0f7H
	DB	07dH
	DB	0efH
	DB	09eH
	DB	0f7H
	DB	07eH
	DB	0f7H
	DB	09dH
	DB	0efH
	DB	07eH
	DB	0f7H
	DB	09eH
	DB	0f7H
	DB	07dH
	DB	0efH
	DB	07eH
	DB	0f7H
	DB	09eH
	DB	0f7H
	DB	07dH
	DB	0efH
	DB	09eH
	DB	0f7H
	DB	07eH
	DB	0f7H
	DB	09dH
	DB	0efH
	DB	07eH
	DB	0f7H
	DB	09eH
	DB	0f7H
	DB	07dH
	DB	0efH
	DB	07eH
	DB	0f7H
	DB	09eH
	DB	0f7H
	DB	07dH
	DB	0efH
	DB	09eH
	DB	0f7H
	DB	07eH
	DB	0f7H
	DB	09dH
	DB	0efH
	DB	07eH
	DB	0f7H
	DB	09eH
	DB	0f7H
	DB	07dH
	DB	0efH
	DB	07eH
	DB	0f7H
	DB	09eH
	DB	0f7H
	DB	07dH
	DB	0efH
	DB	09eH
	DB	0f7H
	DB	07eH
	DB	0f7H
	DB	09dH
	DB	0efH
	DB	07eH
	DB	0f7H
	DB	09eH
	DB	0f7H
	DB	07dH
	DB	0efH
	DB	07eH
	DB	0f7H
	DB	09eH
	DB	0f7H
	DB	07dH
	DB	0efH
	DB	09eH
	DB	0f7H
	DB	07eH
	DB	0f7H
	DB	09dH
	DB	0efH
	DB	07eH
	DB	0f7H
	DB	09eH
	DB	0f7H
	DB	07dH
	DB	0efH
	DB	07eH
	DB	0f7H
	DB	09eH
	DB	0f7H
	DB	07dH
	DB	0efH
	DB	09eH
	DB	0f7H
	DB	07eH
	DB	0f7H
	DB	09dH
	DB	0efH
	DB	07eH
	DB	0f7H
	DB	09eH
	DB	0f7H
	DB	07dH
	DB	0efH
	DB	07eH
	DB	0f7H
	DB	09eH
	DB	0f7H
	DB	07dH
	DB	0efH
	DB	09eH
	DB	0f7H
	DB	07eH
	DB	0f7H
	DB	09dH
	DB	0efH
	DB	07eH
	DB	0f7H
	DB	09eH
	DB	0f7H
	DB	07dH
	DB	0efH
	DB	09eH
	DB	0f7H
	DB	09eH
	DB	0f7H
	DB	07eH
	DB	0f7H
	DB	07eH
	DB	0f7H
	DB	09eH
	DB	0f7H
	DB	07eH
	DB	0f7H
	DB	07eH
	DB	0f7H
	DB	09eH
	DB	0f7H
	DB	09eH
	DB	0f7H
	DB	07eH
	DB	0f7H
	DB	09eH
	DB	0f7H
	DB	07eH
	DB	0f7H
	DB	09eH
	DB	0f7H
	DB	09eH
	DB	0f7H
	DB	07eH
	DB	0f7H
	DB	09eH
	DB	0f7H
	DB	07eH
	DB	0f7H
	DB	09eH
	DB	0f7H
	DB	07eH
	DB	0f7H
	DB	09eH
	DB	0f7H
	DB	07eH
	DB	0f7H
	DB	09eH
	DB	0f7H
	DB	09eH
	DB	0f7H
	DB	07eH
	DB	0f7H
	DB	09eH
	DB	0f7H
	DB	07eH
	DB	0f7H
	DB	09eH
	DB	0f7H
	DB	07eH
	DB	0f7H
	DB	09eH
	DB	0f7H
	DB	07eH
	DB	0f7H
	DB	09eH
	DB	0f7H
	DB	09eH
	DB	0f7H
	DB	07eH
	DB	0f7H
	DB	09eH
	DB	0f7H
	DB	07eH
	DB	0f7H
	DB	09eH
	DB	0f7H
	DB	07eH
	DB	0f7H
	DB	09eH
	DB	0f7H
	DB	07eH
	DB	0f7H
	DB	09eH
	DB	0f7H
	DB	09eH
	DB	0f7H
	DB	07eH
	DB	0f7H
	DB	09eH
	DB	0f7H
	DB	07eH
	DB	0f7H
	DB	09eH
	DB	0f7H
	DB	07eH
	DB	0f7H
	DB	09eH
	DB	0f7H
	DB	07eH
	DB	0f7H
	DB	09eH
	DB	0f7H
	DB	09eH
	DB	0f7H
	DB	07eH
	DB	0f7H
	DB	09eH
	DB	0f7H
	DB	07eH
	DB	0f7H
	DB	09eH
	DB	0f7H
	DB	07eH
	DB	0f7H
	DB	09eH
	DB	0f7H
	DB	07eH
	DB	0f7H
	DB	09eH
	DB	0f7H
	DB	09eH
	DB	0f7H
	DB	07eH
	DB	0f7H
	DB	09eH
	DB	0f7H
	DB	07eH
	DB	0f7H
	DB	09eH
	DB	0f7H
	DB	07eH
	DB	0f7H
	DB	09eH
	DB	0f7H
	DB	07eH
	DB	0f7H
	DB	09eH
	DB	0f7H
	DB	09eH
	DB	0f7H
	DB	07eH
	DB	0f7H
	DB	09eH
	DB	0f7H
	DB	07eH
	DB	0f7H
	DB	09eH
	DB	0f7H
	DB	07eH
	DB	0f7H
	DB	09eH
	DB	0f7H
	DB	07eH
	DB	0f7H
	DB	09eH
	DB	0f7H
	DB	09eH
	DB	0f7H
	DB	07eH
	DB	0f7H
	DB	09eH
	DB	0f7H
	DB	07eH
	DB	0f7H
	DB	09eH
	DB	0f7H
	DB	07eH
	DB	0f7H
	DB	09eH
	DB	0f7H
	DB	07eH
	DB	0f7H
	DB	09eH
	DB	0f7H
	DB	09eH
	DB	0f7H
	DB	07eH
	DB	0f7H
	DB	09eH
	DB	0f7H
	DB	07eH
	DB	0f7H
	DB	09eH
	DB	0f7H
	DB	07eH
	DB	0f7H
	DB	09eH
	DB	0f7H
	DB	07eH
	DB	0f7H
	DB	09eH
	DB	0f7H
	DB	09eH
	DB	0f7H
	DB	07eH
	DB	0f7H
	DB	09eH
	DB	0f7H
	DB	07eH
	DB	0f7H
	DB	09eH
	DB	0f7H
	DB	07eH
	DB	0f7H
	DB	09eH
	DB	0f7H
	DB	07eH
	DB	0f7H
	DB	09eH
	DB	0f7H
	DB	09eH
	DB	0f7H
	DB	07eH
	DB	0f7H
	DB	09eH
	DB	0f7H
	DB	07eH
	DB	0f7H
	DB	09eH
	DB	0f7H
	DB	07eH
	DB	0f7H
	DB	09eH
	DB	0f7H
	DB	07eH
	DB	0f7H
	DB	09eH
	DB	0f7H
	DB	09eH
	DB	0f7H
	DB	07eH
	DB	0f7H
	DB	09eH
	DB	0f7H
	DB	07eH
	DB	0f7H
	DB	09eH
	DB	0f7H
	DB	07eH
	DB	0f7H
	DB	09eH
	DB	0f7H
	DB	07eH
	DB	0f7H
	DB	09eH
	DB	0f7H
	DB	09eH
	DB	0f7H
	DB	07eH
	DB	0f7H
	DB	09eH
	DB	0f7H
	DB	07eH
	DB	0f7H
	DB	09eH
	DB	0f7H
	DB	07eH
	DB	0f7H
	DB	09eH
	DB	0f7H
	DB	07eH
	DB	0f7H
	DB	09eH
	DB	0f7H
	DB	09eH
	DB	0f7H
	DB	07eH
	DB	0f7H
	DB	09eH
	DB	0f7H
	DB	07eH
	DB	0f7H
	DB	09eH
	DB	0f7H
	DB	07eH
	DB	0f7H
	DB	09eH
	DB	0f7H
	DB	07eH
	DB	0f7H
	DB	09eH
	DB	0f7H
	DB	09eH
	DB	0f7H
	DB	07eH
	DB	0f7H
	DB	09eH
	DB	0f7H
	DB	07eH
	DB	0f7H
	DB	09eH
	DB	0f7H
	DB	07eH
	DB	0f7H
	DB	09eH
	DB	0f7H
	DB	07eH
	DB	0f7H
	DB	09eH
	DB	0f7H
	DB	09eH
	DB	0f7H
	DB	07eH
	DB	0f7H
	DB	09eH
	DB	0f7H
	DB	07eH
	DB	0f7H
	DB	09eH
	DB	0f7H
	DB	07eH
	DB	0f7H
	DB	09eH
	DB	0f7H
	DB	07eH
	DB	0f7H
	DB	09eH
	DB	0f7H
	DB	09eH
	DB	0f7H
	DB	07eH
	DB	0f7H
	DB	09eH
	DB	0f7H
	DB	07eH
	DB	0f7H
	DB	09eH
	DB	0f7H
	DB	07eH
	DB	0f7H
	DB	09eH
	DB	0f7H
	DB	07eH
	DB	0f7H
	DB	09eH
	DB	0f7H
	DB	09eH
	DB	0f7H
	DB	07eH
	DB	0f7H
	DB	09eH
	DB	0f7H
	DB	07eH
	DB	0f7H
	DB	09eH
	DB	0f7H
	DB	09eH
	DB	0f7H
	DB	07eH
	DB	0f7H
	DB	09eH
	DB	0f7H
	DB	09eH
	DB	0f7H
	DB	07eH
	DB	0f7H
	DB	09eH
	DB	0f7H
	DB	09eH
	DB	0f7H
	DB	07eH
	DB	0f7H
	DB	09eH
	DB	0f7H
	DB	09eH
	DB	0f7H
	DB	07eH
	DB	0f7H
	DB	09eH
	DB	0f7H
	DB	07eH
	DB	0f7H
	DB	09eH
	DB	0f7H
	DB	09eH
	DB	0f7H
	DB	07eH
	DB	0f7H
	DB	09eH
	DB	0f7H
	DB	07eH
	DB	0f7H
	DB	09eH
	DB	0f7H
	DB	09eH
	DB	0f7H
	DB	07eH
	DB	0f7H
	DB	09eH
	DB	0f7H
	DB	07eH
	DB	0f7H
	DB	09eH
	DB	0f7H
	DB	07eH
	DB	0f7H
	DB	09eH
	DB	0f7H
	DB	07eH
	DB	0f7H
	DB	09eH
	DB	0f7H
	DB	09eH
	DB	0f7H
	DB	07eH
	DB	0f7H
	DB	09eH
	DB	0f7H
	DB	07eH
	DB	0f7H
	DB	09eH
	DB	0f7H
	DB	07eH
	DB	0f7H
	DB	09eH
	DB	0f7H
	DB	07eH
	DB	0f7H
	DB	09eH
	DB	0f7H
	DB	09eH
	DB	0f7H
	DB	07eH
	DB	0f7H
	DB	09eH
	DB	0f7H
	DB	07eH
	DB	0f7H
	DB	09eH
	DB	0f7H
	DB	07eH
	DB	0f7H
	DB	09eH
	DB	0f7H
	DB	07eH
	DB	0f7H
	DB	09eH
	DB	0f7H
	DB	09eH
	DB	0f7H
	DB	07eH
	DB	0f7H
	DB	09eH
	DB	0f7H
	DB	07eH
	DB	0f7H
	DB	09eH
	DB	0f7H
	DB	07eH
	DB	0f7H
	DB	09eH
	DB	0f7H
	DB	07eH
	DB	0f7H
	DB	09eH
	DB	0f7H
	DB	09eH
	DB	0f7H
	DB	07eH
	DB	0f7H
	DB	09eH
	DB	0f7H
	DB	07eH
	DB	0f7H
	DB	09eH
	DB	0f7H
	DB	07eH
	DB	0f7H
	DB	09eH
	DB	0f7H
	DB	07eH
	DB	0f7H
	DB	09eH
	DB	0f7H
	DB	09eH
	DB	0f7H
	DB	07eH
	DB	0f7H
	DB	09eH
	DB	0f7H
	DB	07eH
	DB	0f7H
	DB	09eH
	DB	0f7H
	DB	07eH
	DB	0f7H
	DB	09eH
	DB	0f7H
	DB	07eH
	DB	0f7H
	DB	09eH
	DB	0f7H
	DB	09eH
	DB	0f7H
	DB	07eH
	DB	0f7H
	DB	09eH
	DB	0f7H
	DB	07eH
	DB	0f7H
	DB	09eH
	DB	0f7H
	DB	07eH
	DB	0f7H
	DB	09eH
	DB	0f7H
	DB	07eH
	DB	0f7H
	DB	09eH
	DB	0f7H
	DB	09eH
	DB	0f7H
	DB	07eH
	DB	0f7H
	DB	09eH
	DB	0f7H
	DB	07eH
	DB	0f7H
	DB	09eH
	DB	0f7H
	DB	07eH
	DB	0f7H
	DB	09eH
	DB	0f7H
	DB	07eH
	DB	0f7H
	DB	09eH
	DB	0f7H
	DB	09eH
	DB	0f7H
	DB	07eH
	DB	0f7H
	DB	09eH
	DB	0f7H
	DB	07eH
	DB	0f7H
	DB	09eH
	DB	0f7H
	DB	07eH
	DB	0f7H
	DB	09eH
	DB	0f7H
	DB	07eH
	DB	0f7H
	DB	09eH
	DB	0f7H
	DB	09eH
	DB	0f7H
	DB	07eH
	DB	0f7H
	DB	09eH
	DB	0f7H
	DB	07eH
	DB	0f7H
	DB	09eH
	DB	0f7H
	DB	07eH
	DB	0f7H
	DB	09eH
	DB	0f7H
	DB	07eH
	DB	0f7H
	DB	09eH
	DB	0f7H
	DB	09eH
	DB	0f7H
	DB	07eH
	DB	0f7H
	DB	09eH
	DB	0f7H
	DB	07eH
	DB	0f7H
	DB	09eH
	DB	0f7H
	DB	07eH
	DB	0f7H
	DB	09eH
	DB	0f7H
	DB	07eH
	DB	0f7H
	DB	09eH
	DB	0f7H
	DB	09eH
	DB	0f7H
	DB	07eH
	DB	0f7H
	DB	09eH
	DB	0f7H
	DB	07eH
	DB	0f7H
	DB	09eH
	DB	0f7H
	DB	07eH
	DB	0f7H
	DB	09eH
	DB	0f7H
	DB	07eH
	DB	0f7H
	DB	09eH
	DB	0f7H
	DB	09eH
	DB	0f7H
	DB	07eH
	DB	0f7H
	DB	09eH
	DB	0f7H
	DB	07eH
	DB	0f7H
	DB	09eH
	DB	0f7H
	DB	07eH
	DB	0f7H
	DB	09eH
	DB	0f7H
	DB	07eH
	DB	0f7H
	DB	09eH
	DB	0f7H
	DB	09eH
	DB	0f7H
	DB	07eH
	DB	0f7H
	DB	09eH
	DB	0f7H
	DB	07eH
	DB	0f7H
	DB	09eH
	DB	0f7H
	DB	07eH
	DB	0f7H
	DB	09eH
	DB	0f7H
	DB	07eH
	DB	0f7H
	DB	09eH
	DB	0f7H
	DB	09eH
	DB	0f7H
	DB	07eH
	DB	0f7H
	DB	09eH
	DB	0f7H
	DB	07eH
	DB	0f7H
	DB	09eH
	DB	0f7H
	DB	07eH
	DB	0f7H
	DB	09eH
	DB	0f7H
	DB	07eH
	DB	0f7H
	DB	09eH
	DB	0f7H
	DB	09eH
	DB	0f7H
	DB	07eH
	DB	0f7H
	DB	09eH
	DB	0f7H
	DB	07eH
	DB	0f7H
	DB	09eH
	DB	0f7H
	DB	07eH
	DB	0f7H
	DB	09eH
	DB	0f7H
	DB	07eH
	DB	0f7H
	DB	09eH
	DB	0f7H
	DB	09eH
	DB	0f7H
	DB	07eH
	DB	0f7H
	DB	09eH
	DB	0f7H
	DB	07eH
	DB	0f7H
	DB	09eH
	DB	0f7H
	DB	07eH
	DB	0f7H
	DB	09eH
	DB	0f7H
	DB	07eH
	DB	0f7H
	DB	09eH
	DB	0f7H
	DB	09eH
	DB	0f7H
	DB	07eH
	DB	0f7H
	DB	09eH
	DB	0f7H
	DB	07eH
	DB	0f7H
	DB	09eH
	DB	0f7H
	DB	07eH
	DB	0f7H
	DB	09eH
	DB	0f7H
	DB	07eH
	DB	0f7H
	DB	09eH
	DB	0f7H
	DB	09eH
	DB	0f7H
	DB	07eH
	DB	0f7H
	DB	09eH
	DB	0f7H
	DB	07eH
	DB	0f7H
	DB	09eH
	DB	0f7H
	DB	07eH
	DB	0f7H
	DB	09eH
	DB	0f7H
	DB	07eH
	DB	0f7H
	DB	09eH
	DB	0f7H
	DB	09eH
	DB	0f7H
	DB	07eH
	DB	0f7H
	DB	09eH
	DB	0f7H
	DB	07eH
	DB	0f7H
	DB	09eH
	DB	0f7H
	DB	07eH
	DB	0f7H
	DB	09eH
	DB	0f7H
	DB	07eH
	DB	0f7H
	DB	09eH
	DB	0f7H
	DB	09eH
	DB	0f7H
	DB	07eH
	DB	0f7H
	DB	09eH
	DB	0f7H
	DB	07eH
	DB	0f7H
	DB	09eH
	DB	0f7H
	DB	07eH
	DB	0f7H
	DB	09eH
	DB	0f7H
	DB	07eH
	DB	0f7H
	DB	09eH
	DB	0f7H
	DB	09eH
	DB	0f7H
	DB	07eH
	DB	0f7H
	DB	09eH
	DB	0f7H
	DB	07eH
	DB	0f7H
	DB	09eH
	DB	0f7H
	DB	07eH
	DB	0f7H
	DB	09eH
	DB	0f7H
	DB	07eH
	DB	0f7H
	DB	09eH
	DB	0f7H
	DB	09eH
	DB	0f7H
	DB	07eH
	DB	0f7H
	DB	09eH
	DB	0f7H
	DB	07eH
	DB	0f7H
	DB	09eH
	DB	0f7H
	DB	07eH
	DB	0f7H
	DB	09eH
	DB	0f7H
	DB	07eH
	DB	0f7H
	DB	09eH
	DB	0f7H
	DB	09eH
	DB	0f7H
	DB	07eH
	DB	0f7H
	DB	09eH
	DB	0f7H
	DB	07eH
	DB	0f7H
	DB	09eH
	DB	0f7H
	DB	07eH
	DB	0f7H
	DB	09eH
	DB	0f7H
	DB	07eH
	DB	0f7H
	DB	09eH
	DB	0f7H
	DB	09eH
	DB	0f7H
	DB	07eH
	DB	0f7H
	DB	09eH
	DB	0f7H
	DB	07eH
	DB	0f7H
	DB	09eH
	DB	0f7H
	DB	07eH
	DB	0f7H
	DB	09eH
	DB	0f7H
	DB	07eH
	DB	0f7H
	DB	09eH
	DB	0f7H
	DB	09eH
	DB	0f7H
	DB	07eH
	DB	0f7H
	DB	09eH
	DB	0f7H
	DB	07eH
	DB	0f7H
	DB	09eH
	DB	0f7H
	DB	07eH
	DB	0f7H
	DB	09eH
	DB	0f7H
	DB	07eH
	DB	0f7H
	DB	09eH
	DB	0f7H
	DB	09eH
	DB	0f7H
	DB	07eH
	DB	0f7H
	DB	09eH
	DB	0f7H
	DB	07eH
	DB	0f7H
	DB	09eH
	DB	0f7H
	DB	07eH
	DB	0f7H
	DB	09eH
	DB	0f7H
	DB	07eH
	DB	0f7H
	DB	09eH
	DB	0f7H
	DB	09eH
	DB	0f7H
	DB	07eH
	DB	0f7H
	DB	09eH
	DB	0f7H
	DB	07eH
	DB	0f7H
	DB	09eH
	DB	0f7H
	DB	07eH
	DB	0f7H
	DB	09eH
	DB	0f7H
	DB	07eH
	DB	0f7H
	DB	09eH
	DB	0f7H
	DB	09eH
	DB	0f7H
	DB	07eH
	DB	0f7H
	DB	09eH
	DB	0f7H
	DB	07eH
	DB	0f7H
	DB	09eH
	DB	0f7H
	DB	07eH
	DB	0f7H
	DB	09eH
	DB	0f7H
	DB	07eH
	DB	0f7H
	DB	09eH
	DB	0f7H
	DB	09eH
	DB	0f7H
	DB	07eH
	DB	0f7H
	DB	09eH
	DB	0f7H
	DB	07eH
	DB	0f7H
	DB	09eH
	DB	0f7H
	DB	07eH
	DB	0f7H
	DB	09eH
	DB	0f7H
	DB	07eH
	DB	0f7H
	DB	09eH
	DB	0f7H
	DB	09eH
	DB	0f7H
	DB	07eH
	DB	0f7H
	DB	09eH
	DB	0f7H
	DB	07eH
	DB	0f7H
	DB	09eH
	DB	0f7H
	DB	07eH
	DB	0f7H
	DB	09eH
	DB	0f7H
	DB	07eH
	DB	0f7H
	DB	09eH
	DB	0f7H
	DB	09eH
	DB	0f7H
	DB	07eH
	DB	0f7H
	DB	09eH
	DB	0f7H
	DB	07eH
	DB	0f7H
	DB	09eH
	DB	0f7H
	DB	07eH
	DB	0f7H
	DB	09eH
	DB	0f7H
	DB	07eH
	DB	0f7H
	DB	09eH
	DB	0f7H
	DB	07eH
	DB	0f7H
	DB	07eH
	DB	0f7H
	DB	07dH
	DB	0efH
	DB	09eH
	DB	0f7H
	DB	09eH
	DB	0f7H
	DB	07dH
	DB	0efH
	DB	07eH
	DB	0f7H
	DB	09dH
	DB	0efH
	DB	07eH
	DB	0f7H
	DB	07dH
	DB	0efH
	DB	09eH
	DB	0f7H
	DB	07dH
	DB	0efH
	DB	07dH
	DB	0efH
	DB	09eH
	DB	0f7H
	DB	07dH
	DB	0efH
	DB	07eH
	DB	0f7H
	DB	09dH
	DB	0efH
	DB	09dH
	DB	0efH
	DB	07eH
	DB	0f7H
	DB	09dH
	DB	0efH
	DB	09eH
	DB	0f7H
	DB	07dH
	DB	0efH
	DB	07eH
	DB	0f7H
	DB	09dH
	DB	0efH
	DB	07dH
	DB	0efH
	DB	09eH
	DB	0f7H
	DB	07dH
	DB	0efH
	DB	09eH
	DB	0f7H
	DB	07dH
	DB	0efH
	DB	09dH
	DB	0efH
	DB	07eH
	DB	0f7H
	DB	09dH
	DB	0efH
	DB	07eH
	DB	0f7H
	DB	07dH
	DB	0efH
	DB	09eH
	DB	0f7H
	DB	09dH
	DB	0efH
	DB	07dH
	DB	0efH
	DB	09eH
	DB	0f7H
	DB	09dH
	DB	0efH
	DB	07eH
	DB	0f7H
	DB	07dH
	DB	0efH
	DB	09dH
	DB	0efH
	DB	07eH
	DB	0f7H
	DB	09dH
	DB	0efH
	DB	07eH
	DB	0f7H
	DB	09dH
	DB	0efH
	DB	07eH
	DB	0f7H
	DB	09dH
	DB	0efH
	DB	07dH
	DB	0efH
	DB	09eH
	DB	0f7H
	DB	07dH
	DB	0efH
	DB	07eH
	DB	0f7H
	DB	09dH
	DB	0efH
	DB	09dH
	DB	0efH
	DB	07eH
	DB	0f7H
	DB	09dH
	DB	0efH
	DB	09eH
	DB	0f7H
	DB	07dH
	DB	0efH
	DB	07eH
	DB	0f7H
	DB	09dH
	DB	0efH
	DB	07dH
	DB	0efH
	DB	09eH
	DB	0f7H
	DB	07dH
	DB	0efH
	DB	09eH
	DB	0f7H
	DB	07dH
	DB	0efH
	DB	09dH
	DB	0efH
	DB	07eH
	DB	0f7H
	DB	09dH
	DB	0efH
	DB	07eH
	DB	0f7H
	DB	07dH
	DB	0efH
	DB	09eH
	DB	0f7H
	DB	09dH
	DB	0efH
	DB	07dH
	DB	0efH
	DB	09eH
	DB	0f7H
	DB	09dH
	DB	0efH
	DB	07eH
	DB	0f7H
	DB	07dH
	DB	0efH
	DB	09dH
	DB	0efH
	DB	07eH
	DB	0f7H
	DB	09dH
	DB	0efH
	DB	07eH
	DB	0f7H
	DB	09dH
	DB	0efH
	DB	07eH
	DB	0f7H
	DB	09dH
	DB	0efH
	DB	07dH
	DB	0efH
	DB	09eH
	DB	0f7H
	DB	07dH
	DB	0efH
	DB	07eH
	DB	0f7H
	DB	09dH
	DB	0efH
	DB	09dH
	DB	0efH
	DB	07eH
	DB	0f7H
	DB	09dH
	DB	0efH
	DB	09eH
	DB	0f7H
	DB	07dH
	DB	0efH
	DB	07eH
	DB	0f7H
	DB	09dH
	DB	0efH
	DB	07dH
	DB	0efH
	DB	09eH
	DB	0f7H
	DB	07dH
	DB	0efH
	DB	09eH
	DB	0f7H
	DB	07dH
	DB	0efH
	DB	09dH
	DB	0efH
	DB	07eH
	DB	0f7H
	DB	09dH
	DB	0efH
	DB	07eH
	DB	0f7H
	DB	07dH
	DB	0efH
	DB	09eH
	DB	0f7H
	DB	09dH
	DB	0efH
	DB	07dH
	DB	0efH
	DB	09eH
	DB	0f7H
	DB	09dH
	DB	0efH
	DB	07eH
	DB	0f7H
	DB	07dH
	DB	0efH
	DB	09dH
	DB	0efH
	DB	07eH
	DB	0f7H
	DB	09dH
	DB	0efH
	DB	07eH
	DB	0f7H
	DB	09dH
	DB	0efH
	DB	07eH
	DB	0f7H
	DB	09dH
	DB	0efH
	DB	07dH
	DB	0efH
	DB	09eH
	DB	0f7H
	DB	07dH
	DB	0efH
	DB	07eH
	DB	0f7H
	DB	09dH
	DB	0efH
	DB	09dH
	DB	0efH
	DB	07eH
	DB	0f7H
	DB	09dH
	DB	0efH
	DB	09eH
	DB	0f7H
	DB	07dH
	DB	0efH
	DB	07eH
	DB	0f7H
	DB	09dH
	DB	0efH
	DB	07dH
	DB	0efH
	DB	09eH
	DB	0f7H
	DB	07dH
	DB	0efH
	DB	09eH
	DB	0f7H
	DB	07dH
	DB	0efH
	DB	09dH
	DB	0efH
	DB	07eH
	DB	0f7H
	DB	09dH
	DB	0efH
	DB	07eH
	DB	0f7H
	DB	07dH
	DB	0efH
	DB	09eH
	DB	0f7H
	DB	09dH
	DB	0efH
	DB	07dH
	DB	0efH
	DB	09eH
	DB	0f7H
	DB	09dH
	DB	0efH
	DB	07eH
	DB	0f7H
	DB	07dH
	DB	0efH
	DB	09dH
	DB	0efH
	DB	07eH
	DB	0f7H
	DB	09dH
	DB	0efH
	DB	07eH
	DB	0f7H
	DB	09dH
	DB	0efH
	DB	07eH
	DB	0f7H
	DB	09dH
	DB	0efH
	DB	07dH
	DB	0efH
	DB	09eH
	DB	0f7H
	DB	07dH
	DB	0efH
	DB	07eH
	DB	0f7H
	DB	09dH
	DB	0efH
	DB	09dH
	DB	0efH
	DB	07eH
	DB	0f7H
	DB	09dH
	DB	0efH
	DB	09eH
	DB	0f7H
	DB	07dH
	DB	0efH
	DB	07eH
	DB	0f7H
	DB	09dH
	DB	0efH
	DB	07dH
	DB	0efH
	DB	09eH
	DB	0f7H
	DB	07dH
	DB	0efH
	DB	09eH
	DB	0f7H
	DB	07dH
	DB	0efH
	DB	07dH
	DB	0efH
	DB	09eH
	DB	0f7H
	DB	07eH
	DB	0f7H
	DB	07dH
	DB	0efH
	DB	09dH
	DB	0efH
	DB	07eH
	DB	0f7H
	DB	07dH
	DB	0efH
	DB	09eH
	DB	0f7H
	DB	07dH
	DB	0efH
	DB	07dH
	DB	0efH
	DB	09eH
	DB	0f7H
	DB	07dH
	DB	0efH
	DB	09eH
	DB	0f7H
	DB	07dH
	DB	0efH
	DB	07eH
	DB	0f7H
	DB	09dH
	DB	0efH
	DB	07dH
	DB	0efH
	DB	07eH
	DB	0f7H
	DB	09dH
	DB	0efH
	DB	07eH
	DB	0f7H
	DB	09dH
	DB	0efH
	DB	07dH
	DB	0efH
	DB	09eH
	DB	0f7H
	DB	07dH
	DB	0efH
	DB	09eH
	DB	0f7H
	DB	07dH
	DB	0efH
	DB	09eH
	DB	0f7H
	DB	07dH
	DB	0efH
	DB	07dH
	DB	0efH
	DB	09eH
	DB	0f7H
	DB	09dH
	DB	0efH
	DB	07eH
	DB	0f7H
	DB	09dH
	DB	0efH
	DB	09dH
	DB	0efH
	DB	07eH
	DB	0f7H
	DB	07dH
	DB	0efH
	DB	09eH
	DB	0f7H
	DB	07dH
	DB	0efH
	DB	09eH
	DB	0f7H
	DB	07dH
	DB	0efH
	DB	09dH
	DB	0efH
	DB	07eH
	DB	0f7H
	DB	09dH
	DB	0efH
	DB	07eH
	DB	0f7H
	DB	09dH
	DB	0efH
	DB	07dH
	DB	0efH
	DB	07eH
	DB	0f7H
	DB	09dH
	DB	0efH
	DB	09eH
	DB	0f7H
	DB	07dH
	DB	0efH
	DB	09eH
	DB	0f7H
	DB	09dH
	DB	0efH
	DB	07dH
	DB	0efH
	DB	07eH
	DB	0f7H
	DB	09dH
	DB	0efH
	DB	07eH
	DB	0f7H
	DB	09dH
	DB	0efH
	DB	07dH
	DB	0efH
	DB	09eH
	DB	0f7H
	DB	07dH
	DB	0efH
	DB	09eH
	DB	0f7H
	DB	07dH
	DB	0efH
	DB	09eH
	DB	0f7H
	DB	07dH
	DB	0efH
	DB	07dH
	DB	0efH
	DB	09eH
	DB	0f7H
	DB	09dH
	DB	0efH
	DB	07eH
	DB	0f7H
	DB	09dH
	DB	0efH
	DB	09dH
	DB	0efH
	DB	07eH
	DB	0f7H
	DB	07dH
	DB	0efH
	DB	09eH
	DB	0f7H
	DB	07dH
	DB	0efH
	DB	09eH
	DB	0f7H
	DB	07dH
	DB	0efH
	DB	09dH
	DB	0efH
	DB	07eH
	DB	0f7H
	DB	09dH
	DB	0efH
	DB	07eH
	DB	0f7H
	DB	09dH
	DB	0efH
	DB	07dH
	DB	0efH
	DB	07eH
	DB	0f7H
	DB	09dH
	DB	0efH
	DB	09eH
	DB	0f7H
	DB	07dH
	DB	0efH
	DB	09eH
	DB	0f7H
	DB	09dH
	DB	0efH
	DB	07dH
	DB	0efH
	DB	07eH
	DB	0f7H
	DB	09dH
	DB	0efH
	DB	07eH
	DB	0f7H
	DB	09dH
	DB	0efH
	DB	07dH
	DB	0efH
	DB	09eH
	DB	0f7H
	DB	07dH
	DB	0efH
	DB	09eH
	DB	0f7H
	DB	07dH
	DB	0efH
	DB	09eH
	DB	0f7H
	DB	07dH
	DB	0efH
	DB	07dH
	DB	0efH
	DB	09eH
	DB	0f7H
	DB	09dH
	DB	0efH
	DB	07eH
	DB	0f7H
	DB	09dH
	DB	0efH
	DB	09dH
	DB	0efH
	DB	07eH
	DB	0f7H
	DB	07dH
	DB	0efH
	DB	09eH
	DB	0f7H
	DB	07dH
	DB	0efH
	DB	09eH
	DB	0f7H
	DB	07dH
	DB	0efH
	DB	09dH
	DB	0efH
	DB	07eH
	DB	0f7H
	DB	09dH
	DB	0efH
	DB	07eH
	DB	0f7H
	DB	09dH
	DB	0efH
	DB	07dH
	DB	0efH
	DB	07eH
	DB	0f7H
	DB	09dH
	DB	0efH
	DB	09eH
	DB	0f7H
	DB	07dH
	DB	0efH
	DB	09eH
	DB	0f7H
	DB	09dH
	DB	0efH
	DB	07dH
	DB	0efH
	DB	07eH
	DB	0f7H
	DB	09dH
	DB	0efH
	DB	07eH
	DB	0f7H
	DB	09dH
	DB	0efH
	DB	07dH
	DB	0efH
	DB	09eH
	DB	0f7H
	DB	07dH
	DB	0efH
	DB	09eH
	DB	0f7H
	DB	07dH
	DB	0efH
	DB	09eH
	DB	0f7H
	DB	07dH
	DB	0efH
	DB	07dH
	DB	0efH
	DB	09eH
	DB	0f7H
	DB	09dH
	DB	0efH
	DB	07eH
	DB	0f7H
	DB	09dH
	DB	0efH
	DB	09dH
	DB	0efH
	DB	07eH
	DB	0f7H
	DB	07dH
	DB	0efH
	DB	09eH
	DB	0f7H
	DB	07dH
	DB	0efH
	DB	09eH
	DB	0f7H
	DB	07dH
	DB	0efH
	DB	09dH
	DB	0efH
	DB	07eH
	DB	0f7H
	DB	09dH
	DB	0efH
	DB	07eH
	DB	0f7H
	DB	09dH
	DB	0efH
	DB	07dH
	DB	0efH
	DB	07eH
	DB	0f7H
	DB	09dH
	DB	0efH
	DB	09eH
	DB	0f7H
	DB	07dH
	DB	0efH
	DB	09eH
	DB	0f7H
	DB	09dH
	DB	0efH
	DB	07dH
	DB	0efH
	DB	07eH
	DB	0f7H
	DB	09dH
	DB	0efH
	DB	07eH
	DB	0f7H
	DB	09dH
	DB	0efH
	DB	07dH
	DB	0efH
	DB	09eH
	DB	0f7H
	DB	07dH
	DB	0efH
	DB	09eH
	DB	0f7H
	DB	07dH
	DB	0efH
	DB	09eH
	DB	0f7H
	DB	07dH
	DB	0efH
	DB	07dH
	DB	0efH
	DB	09eH
	DB	0f7H
	DB	09dH
	DB	0efH
	DB	07eH
	DB	0f7H
	DB	09dH
	DB	0efH
	DB	09dH
	DB	0efH
	DB	07eH
	DB	0f7H
	DB	07dH
	DB	0efH
	DB	09eH
	DB	0f7H
	DB	07dH
	DB	0efH
	DB	09eH
	DB	0f7H
	DB	07dH
	DB	0efH
	DB	09dH
	DB	0efH
	DB	07eH
	DB	0f7H
	DB	09dH
	DB	0efH
	DB	07eH
	DB	0f7H
	DB	09dH
	DB	0efH
	DB	07dH
	DB	0efH
	DB	07eH
	DB	0f7H
	DB	09dH
	DB	0efH
	DB	09eH
	DB	0f7H
	DB	07dH
	DB	0efH
	DB	09eH
	DB	0f7H
	DB	09dH
	DB	0efH
	DB	07dH
	DB	0efH
	DB	07eH
	DB	0f7H
	DB	09dH
	DB	0efH
	DB	07eH
	DB	0f7H
	DB	09dH
	DB	0efH
	DB	07dH
	DB	0efH
	DB	09eH
	DB	0f7H
	DB	07dH
	DB	0efH
	DB	09eH
	DB	0f7H
	DB	07dH
	DB	0efH
	DB	09eH
	DB	0f7H
	DB	07dH
	DB	0efH
	DB	07dH
	DB	0efH
	DB	09eH
	DB	0f7H
	DB	09dH
	DB	0efH
	DB	07eH
	DB	0f7H
	DB	09dH
	DB	0efH
	DB	09dH
	DB	0efH
	DB	07eH
	DB	0f7H
	DB	07dH
	DB	0efH
	DB	09eH
	DB	0f7H
	DB	07dH
	DB	0efH
	DB	09eH
	DB	0f7H
	DB	07dH
	DB	0efH
	DB	09dH
	DB	0efH
	DB	07eH
	DB	0f7H
	DB	09dH
	DB	0efH
	DB	07eH
	DB	0f7H
	DB	09dH
	DB	0efH
	DB	07dH
	DB	0efH
	DB	07eH
	DB	0f7H
	DB	09dH
	DB	0efH
	DB	09eH
	DB	0f7H
	DB	07dH
	DB	0efH
	DB	09eH
	DB	0f7H
	DB	09dH
	DB	0efH
	DB	07dH
	DB	0efH
	DB	07eH
	DB	0f7H
	DB	09dH
	DB	0efH
	DB	07eH
	DB	0f7H
	DB	09dH
	DB	0efH
	DB	07dH
	DB	0efH
	DB	09eH
	DB	0f7H
	DB	07dH
	DB	0efH
	DB	09eH
	DB	0f7H
	DB	07dH
	DB	0efH
	DB	09eH
	DB	0f7H
	DB	07dH
	DB	0efH
	DB	07dH
	DB	0efH
	DB	09eH
	DB	0f7H
	DB	09dH
	DB	0efH
	DB	07eH
	DB	0f7H
	DB	09dH
	DB	0efH
	DB	09dH
	DB	0efH
	DB	07eH
	DB	0f7H
	DB	07dH
	DB	0efH
	DB	09eH
	DB	0f7H
	DB	07dH
	DB	0efH
	DB	09eH
	DB	0f7H
	DB	07dH
	DB	0efH
	DB	09dH
	DB	0efH
	DB	07eH
	DB	0f7H
	DB	09dH
	DB	0efH
	DB	07eH
	DB	0f7H
	DB	09dH
	DB	0efH
	DB	07dH
	DB	0efH
	DB	07eH
	DB	0f7H
	DB	09dH
	DB	0efH
	DB	09eH
	DB	0f7H
	DB	07dH
	DB	0efH
	DB	09eH
	DB	0f7H
	DB	09dH
	DB	0efH
	DB	07dH
	DB	0efH
	DB	07eH
	DB	0f7H
	DB	09dH
	DB	0efH
	DB	07eH
	DB	0f7H
	DB	09dH
	DB	0efH
	DB	07dH
	DB	0efH
	DB	09eH
	DB	0f7H
	DB	07dH
	DB	0efH
	DB	09eH
	DB	0f7H
	DB	07dH
	DB	0efH
	DB	09eH
	DB	0f7H
	DB	07dH
	DB	0efH
	DB	07dH
	DB	0efH
	DB	09eH
	DB	0f7H
	DB	09dH
	DB	0efH
	DB	07eH
	DB	0f7H
	DB	09dH
	DB	0efH
	DB	09dH
	DB	0efH
	DB	07eH
	DB	0f7H
	DB	07dH
	DB	0efH
	DB	09eH
	DB	0f7H
	DB	07dH
	DB	0efH
	DB	09eH
	DB	0f7H
	DB	07dH
	DB	0efH
	DB	09dH
	DB	0efH
	DB	07eH
	DB	0f7H
	DB	09dH
	DB	0efH
	DB	07eH
	DB	0f7H
	DB	09dH
	DB	0efH
	DB	07dH
	DB	0efH
	DB	07eH
	DB	0f7H
	DB	09dH
	DB	0efH
	DB	09eH
	DB	0f7H
	DB	07dH
	DB	0efH
	DB	09eH
	DB	0f7H
	DB	09dH
	DB	0efH
	DB	07dH
	DB	0efH
	DB	09eH
	DB	0f7H
	DB	09dH
	DB	0efH
	DB	09eH
	DB	0f7H
	DB	07eH
	DB	0f7H
	DB	09dH
	DB	0efH
	DB	07eH
	DB	0f7H
	DB	09eH
	DB	0f7H
	DB	09eH
	DB	0f7H
	DB	07eH
	DB	0f7H
	DB	09eH
	DB	0f7H
	DB	09eH
	DB	0f7H
	DB	07eH
	DB	0f7H
	DB	09eH
	DB	0f7H
	DB	09eH
	DB	0f7H
	DB	07eH
	DB	0f7H
	DB	09eH
	DB	0f7H
	DB	09eH
	DB	0f7H
	DB	07eH
	DB	0f7H
	DB	07eH
	DB	0f7H
	DB	09eH
	DB	0f7H
	DB	07eH
	DB	0f7H
	DB	07eH
	DB	0f7H
	DB	09dH
	DB	0efH
	DB	07eH
	DB	0f7H
	DB	09eH
	DB	0f7H
	DB	07eH
	DB	0f7H
	DB	07eH
	DB	0f7H
	DB	09eH
	DB	0f7H
	DB	09eH
	DB	0f7H
	DB	07eH
	DB	0f7H
	DB	09eH
	DB	0f7H
	DB	07eH
	DB	0f7H
	DB	09eH
	DB	0f7H
	DB	09eH
	DB	0f7H
	DB	07dH
	DB	0efH
	DB	07eH
	DB	0f7H
	DB	09eH
	DB	0f7H
	DB	07eH
	DB	0f7H
	DB	07eH
	DB	0f7H
	DB	09eH
	DB	0f7H
	DB	07eH
	DB	0f7H
	DB	09eH
	DB	0f7H
	DB	09eH
	DB	0f7H
	DB	07eH
	DB	0f7H
	DB	07eH
	DB	0f7H
	DB	09eH
	DB	0f7H
	DB	09dH
	DB	0efH
	DB	07eH
	DB	0f7H
	DB	09eH
	DB	0f7H
	DB	07eH
	DB	0f7H
	DB	09eH
	DB	0f7H
	DB	09eH
	DB	0f7H
	DB	07eH
	DB	0f7H
	DB	07eH
	DB	0f7H
	DB	09eH
	DB	0f7H
	DB	07eH
	DB	0f7H
	DB	07eH
	DB	0f7H
	DB	09eH
	DB	0f7H
	DB	07dH
	DB	0efH
	DB	09eH
	DB	0f7H
	DB	09eH
	DB	0f7H
	DB	07eH
	DB	0f7H
	DB	07eH
	DB	0f7H
	DB	09eH
	DB	0f7H
	DB	09eH
	DB	0f7H
	DB	07eH
	DB	0f7H
	DB	09eH
	DB	0f7H
	DB	07eH
	DB	0f7H
	DB	09eH
	DB	0f7H
	DB	09eH
	DB	0f7H
	DB	07dH
	DB	0efH
	DB	07eH
	DB	0f7H
	DB	09eH
	DB	0f7H
	DB	07eH
	DB	0f7H
	DB	07eH
	DB	0f7H
	DB	09eH
	DB	0f7H
	DB	07eH
	DB	0f7H
	DB	09eH
	DB	0f7H
	DB	09eH
	DB	0f7H
	DB	07eH
	DB	0f7H
	DB	07eH
	DB	0f7H
	DB	09eH
	DB	0f7H
	DB	09dH
	DB	0efH
	DB	07eH
	DB	0f7H
	DB	09eH
	DB	0f7H
	DB	07eH
	DB	0f7H
	DB	09eH
	DB	0f7H
	DB	09eH
	DB	0f7H
	DB	07eH
	DB	0f7H
	DB	07eH
	DB	0f7H
	DB	09eH
	DB	0f7H
	DB	07eH
	DB	0f7H
	DB	07eH
	DB	0f7H
	DB	09eH
	DB	0f7H
	DB	07dH
	DB	0efH
	DB	09eH
	DB	0f7H
	DB	09eH
	DB	0f7H
	DB	07eH
	DB	0f7H
	DB	07eH
	DB	0f7H
	DB	09eH
	DB	0f7H
	DB	09eH
	DB	0f7H
	DB	07eH
	DB	0f7H
	DB	09eH
	DB	0f7H
	DB	07eH
	DB	0f7H
	DB	09eH
	DB	0f7H
	DB	09eH
	DB	0f7H
	DB	07dH
	DB	0efH
	DB	07eH
	DB	0f7H
	DB	09eH
	DB	0f7H
	DB	07eH
	DB	0f7H
	DB	07eH
	DB	0f7H
	DB	09eH
	DB	0f7H
	DB	07eH
	DB	0f7H
	DB	09eH
	DB	0f7H
	DB	09eH
	DB	0f7H
	DB	07eH
	DB	0f7H
	DB	07eH
	DB	0f7H
	DB	09eH
	DB	0f7H
	DB	09dH
	DB	0efH
	DB	07eH
	DB	0f7H
	DB	09eH
	DB	0f7H
	DB	07eH
	DB	0f7H
	DB	09eH
	DB	0f7H
	DB	09eH
	DB	0f7H
	DB	07eH
	DB	0f7H
	DB	07eH
	DB	0f7H
	DB	09eH
	DB	0f7H
	DB	07eH
	DB	0f7H
	DB	07eH
	DB	0f7H
	DB	09eH
	DB	0f7H
	DB	07dH
	DB	0efH
	DB	09eH
	DB	0f7H
	DB	09eH
	DB	0f7H
	DB	07eH
	DB	0f7H
	DB	07eH
	DB	0f7H
	DB	09eH
	DB	0f7H
	DB	09eH
	DB	0f7H
	DB	07eH
	DB	0f7H
	DB	09eH
	DB	0f7H
	DB	07eH
	DB	0f7H
	DB	09eH
	DB	0f7H
	DB	09eH
	DB	0f7H
	DB	07dH
	DB	0efH
	DB	07eH
	DB	0f7H
	DB	09eH
	DB	0f7H
	DB	07eH
	DB	0f7H
	DB	07eH
	DB	0f7H
	DB	09eH
	DB	0f7H
	DB	07eH
	DB	0f7H
	DB	09eH
	DB	0f7H
	DB	09eH
	DB	0f7H
	DB	07eH
	DB	0f7H
	DB	07eH
	DB	0f7H
	DB	09eH
	DB	0f7H
	DB	09dH
	DB	0efH
	DB	07eH
	DB	0f7H
	DB	09eH
	DB	0f7H
	DB	07eH
	DB	0f7H
	DB	09eH
	DB	0f7H
	DB	09eH
	DB	0f7H
	DB	07eH
	DB	0f7H
	DB	07eH
	DB	0f7H
	DB	09eH
	DB	0f7H
	DB	07eH
	DB	0f7H
	DB	07eH
	DB	0f7H
	DB	09eH
	DB	0f7H
	DB	07dH
	DB	0efH
	DB	09eH
	DB	0f7H
	DB	09eH
	DB	0f7H
	DB	07eH
	DB	0f7H
	DB	07eH
	DB	0f7H
	DB	09eH
	DB	0f7H
	DB	07eH
	DB	0f7H
	DB	09eH
	DB	0f7H
	DB	07eH
	DB	0f7H
	DB	09eH
	DB	0f7H
	DB	09eH
	DB	0f7H
	DB	07dH
	DB	0efH
	DB	09eH
	DB	0f7H
	DB	09eH
	DB	0f7H
	DB	07eH
	DB	0f7H
	DB	09eH
	DB	0f7H
	DB	09eH
	DB	0f7H
	DB	07eH
	DB	0f7H
	DB	09eH
	DB	0f7H
	DB	07eH
	DB	0f7H
	DB	09eH
	DB	0f7H
	DB	09dH
	DB	0efH
	DB	07eH
	DB	0f7H
	DB	09eH
	DB	0f7H
	DB	09eH
	DB	0f7H
	DB	07eH
	DB	0f7H
	DB	09eH
	DB	0f7H
	DB	07eH
	DB	0f7H
	DB	07eH
	DB	0f7H
	DB	09eH
	DB	0f7H
	DB	09eH
	DB	0f7H
	DB	07eH
	DB	0f7H
	DB	09eH
	DB	0f7H
	DB	07dH
	DB	0efH
	DB	09eH
	DB	0f7H
	DB	09eH
	DB	0f7H
	DB	07eH
	DB	0f7H
	DB	07eH
	DB	0f7H
	DB	09eH
	DB	0f7H
	DB	07eH
	DB	0f7H
	DB	07eH
	DB	0f7H
	DB	09eH
	DB	0f7H
	DB	07eH
	DB	0f7H
	DB	09eH
	DB	0f7H
	DB	09eH
	DB	0f7H
	DB	07dH
	DB	0efH
	DB	07eH
	DB	0f7H
	DB	09eH
	DB	0f7H
	DB	09eH
	DB	0f7H
	DB	07eH
	DB	0f7H
	DB	09eH
	DB	0f7H
	DB	07eH
	DB	0f7H
	DB	09eH
	DB	0f7H
	DB	09eH
	DB	0f7H
	DB	07eH
	DB	0f7H
	DB	07eH
	DB	0f7H
	DB	09eH
	DB	0f7H
	DB	07dH
	DB	0efH
	DB	07eH
	DB	0f7H
	DB	09eH
	DB	0f7H
	DB	07eH
	DB	0f7H
	DB	09eH
	DB	0f7H
	DB	09eH
	DB	0f7H
	DB	07eH
	DB	0f7H
	DB	07eH
	DB	0f7H
	DB	09eH
	DB	0f7H
	DB	09eH
	DB	0f7H
	DB	07eH
	DB	0f7H
	DB	09eH
	DB	0f7H
	DB	07dH
	DB	0efH
	DB	09eH
	DB	0f7H
	DB	09eH
	DB	0f7H
	DB	07eH
	DB	0f7H
	DB	07eH
	DB	0f7H
	DB	09eH
	DB	0f7H
	DB	07eH
	DB	0f7H
	DB	07eH
	DB	0f7H
	DB	09eH
	DB	0f7H
	DB	07eH
	DB	0f7H
	DB	09eH
	DB	0f7H
	DB	09eH
	DB	0f7H
	DB	07dH
	DB	0efH
	DB	07eH
	DB	0f7H
	DB	09eH
	DB	0f7H
	DB	09eH
	DB	0f7H
	DB	07eH
	DB	0f7H
	DB	09eH
	DB	0f7H
	DB	07eH
	DB	0f7H
	DB	09eH
	DB	0f7H
	DB	09eH
	DB	0f7H
	DB	07eH
	DB	0f7H
	DB	07eH
	DB	0f7H
	DB	09eH
	DB	0f7H
	DB	07dH
	DB	0efH
	DB	07eH
	DB	0f7H
	DB	09eH
	DB	0f7H
	DB	07eH
	DB	0f7H
	DB	09eH
	DB	0f7H
	DB	09eH
	DB	0f7H
	DB	07eH
	DB	0f7H
	DB	07eH
	DB	0f7H
	DB	09eH
	DB	0f7H
	DB	09eH
	DB	0f7H
	DB	07eH
	DB	0f7H
	DB	09eH
	DB	0f7H
	DB	07dH
	DB	0efH
	DB	09eH
	DB	0f7H
	DB	09eH
	DB	0f7H
	DB	07eH
	DB	0f7H
	DB	07eH
	DB	0f7H
	DB	09eH
	DB	0f7H
	DB	07eH
	DB	0f7H
	DB	07eH
	DB	0f7H
	DB	09eH
	DB	0f7H
	DB	07eH
	DB	0f7H
	DB	09eH
	DB	0f7H
	DB	09eH
	DB	0f7H
	DB	07dH
	DB	0efH
	DB	07eH
	DB	0f7H
	DB	09eH
	DB	0f7H
	DB	09eH
	DB	0f7H
	DB	07eH
	DB	0f7H
	DB	09eH
	DB	0f7H
	DB	07eH
	DB	0f7H
	DB	09eH
	DB	0f7H
	DB	09eH
	DB	0f7H
	DB	07eH
	DB	0f7H
	DB	07eH
	DB	0f7H
	DB	09eH
	DB	0f7H
	DB	07dH
	DB	0efH
	DB	07eH
	DB	0f7H
	DB	09eH
	DB	0f7H
	DB	07eH
	DB	0f7H
	DB	09eH
	DB	0f7H
	DB	09eH
	DB	0f7H
	DB	07eH
	DB	0f7H
	DB	07eH
	DB	0f7H
	DB	09eH
	DB	0f7H
	DB	09eH
	DB	0f7H
	DB	07eH
	DB	0f7H
	DB	09eH
	DB	0f7H
	DB	07dH
	DB	0efH
	DB	09eH
	DB	0f7H
	DB	09eH
	DB	0f7H
	DB	07eH
	DB	0f7H
	DB	07eH
	DB	0f7H
	DB	09eH
	DB	0f7H
	DB	07eH
	DB	0f7H
	DB	07eH
	DB	0f7H
	DB	09eH
	DB	0f7H
	DB	07eH
	DB	0f7H
	DB	09eH
	DB	0f7H
	DB	09eH
	DB	0f7H
	DB	07dH
	DB	0efH
	DB	07eH
	DB	0f7H
	DB	09eH
	DB	0f7H
	DB	09eH
	DB	0f7H
	DB	07eH
	DB	0f7H
	DB	09eH
	DB	0f7H
	DB	07eH
	DB	0f7H
	DB	09eH
	DB	0f7H
	DB	09eH
	DB	0f7H
	DB	07eH
	DB	0f7H
	DB	07eH
	DB	0f7H
	DB	09eH
	DB	0f7H
	DB	07dH
	DB	0efH
	DB	07eH
	DB	0f7H
	DB	09eH
	DB	0f7H
	DB	07eH
	DB	0f7H
	DB	09eH
	DB	0f7H
	DB	09eH
	DB	0f7H
	DB	07eH
	DB	0f7H
	DB	07eH
	DB	0f7H
	DB	09eH
	DB	0f7H
	DB	09eH
	DB	0f7H
	DB	07eH
	DB	0f7H
	DB	09eH
	DB	0f7H
	DB	07dH
	DB	0efH
	DB	09eH
	DB	0f7H
	DB	09eH
	DB	0f7H
	DB	07eH
	DB	0f7H
	DB	07eH
	DB	0f7H
	DB	09eH
	DB	0f7H
	DB	07eH
	DB	0f7H
	DB	07eH
	DB	0f7H
	DB	09eH
	DB	0f7H
	DB	07eH
	DB	0f7H
	DB	09eH
	DB	0f7H
	DB	09eH
	DB	0f7H
	DB	07dH
	DB	0efH
	DB	07eH
	DB	0f7H
	DB	09eH
	DB	0f7H
	DB	09eH
	DB	0f7H
	DB	07eH
	DB	0f7H
	DB	09eH
	DB	0f7H
	DB	07eH
	DB	0f7H
	DB	09eH
	DB	0f7H
	DB	09eH
	DB	0f7H
	DB	07eH
	DB	0f7H
	DB	07eH
	DB	0f7H
	DB	09eH
	DB	0f7H
	DB	07dH
	DB	0efH
	DB	07eH
	DB	0f7H
	DB	09eH
	DB	0f7H
	DB	07eH
	DB	0f7H
	DB	09eH
	DB	0f7H
	DB	09eH
	DB	0f7H
	DB	07eH
	DB	0f7H
	DB	07eH
	DB	0f7H
	DB	09eH
	DB	0f7H
	DB	09eH
	DB	0f7H
	DB	07eH
	DB	0f7H
	DB	09eH
	DB	0f7H
	DB	07dH
	DB	0efH
	DB	09eH
	DB	0f7H
	DB	09eH
	DB	0f7H
	DB	07eH
	DB	0f7H
	DB	07eH
	DB	0f7H
	DB	09eH
	DB	0f7H
	DB	07eH
	DB	0f7H
	DB	07eH
	DB	0f7H
	DB	09eH
	DB	0f7H
	DB	07eH
	DB	0f7H
	DB	09eH
	DB	0f7H
	DB	09eH
	DB	0f7H
	DB	07dH
	DB	0efH
	DB	07eH
	DB	0f7H
	DB	09eH
	DB	0f7H
	DB	09eH
	DB	0f7H
	DB	07eH
	DB	0f7H
	DB	09eH
	DB	0f7H
	DB	07eH
	DB	0f7H
	DB	09eH
	DB	0f7H
	DB	09eH
	DB	0f7H
	DB	07eH
	DB	0f7H
	DB	07eH
	DB	0f7H
	DB	09eH
	DB	0f7H
	DB	07dH
	DB	0efH
	DB	07eH
	DB	0f7H
	DB	09eH
	DB	0f7H
	DB	07eH
	DB	0f7H
	DB	09eH
	DB	0f7H
	DB	09eH
	DB	0f7H
	DB	07eH
	DB	0f7H
	DB	07eH
	DB	0f7H
	DB	09eH
	DB	0f7H
	DB	09eH
	DB	0f7H
	DB	07eH
	DB	0f7H
	DB	09eH
	DB	0f7H
	DB	07dH
	DB	0efH
	DB	09eH
	DB	0f7H
	DB	09eH
	DB	0f7H
	DB	07eH
	DB	0f7H
	DB	07eH
	DB	0f7H
	DB	09eH
	DB	0f7H
	DB	07eH
	DB	0f7H
	DB	07eH
	DB	0f7H
	DB	09eH
	DB	0f7H
	DB	07eH
	DB	0f7H
	DB	09eH
	DB	0f7H
	DB	09eH
	DB	0f7H
	DB	07dH
	DB	0efH
	DB	07eH
	DB	0f7H
	DB	09eH
	DB	0f7H
	DB	09eH
	DB	0f7H
	DB	07eH
	DB	0f7H
	DB	09eH
	DB	0f7H
	DB	07eH
	DB	0f7H
	DB	09eH
	DB	0f7H
	DB	09eH
	DB	0f7H
	DB	07eH
	DB	0f7H
	DB	07eH
	DB	0f7H
	DB	09eH
	DB	0f7H
	DB	07dH
	DB	0efH
	DB	07eH
	DB	0f7H
	DB	09eH
	DB	0f7H
	DB	07eH
	DB	0f7H
	DB	09eH
	DB	0f7H
	DB	09eH
	DB	0f7H
	DB	07eH
	DB	0f7H
	DB	07eH
	DB	0f7H
	DB	09eH
	DB	0f7H
	DB	09eH
	DB	0f7H
	DB	07eH
	DB	0f7H
	DB	09eH
	DB	0f7H
	DB	07dH
	DB	0efH
	DB	09eH
	DB	0f7H
	DB	09eH
	DB	0f7H
	DB	07eH
	DB	0f7H
	DB	07eH
	DB	0f7H
	DB	09eH
	DB	0f7H
	DB	07eH
	DB	0f7H
	DB	07eH
	DB	0f7H
	DB	09eH
	DB	0f7H
	DB	07eH
	DB	0f7H
	DB	09eH
	DB	0f7H
	DB	09eH
	DB	0f7H
	DB	07dH
	DB	0efH
	DB	07eH
	DB	0f7H
	DB	09eH
	DB	0f7H
	DB	09eH
	DB	0f7H
	DB	07eH
	DB	0f7H
	DB	09eH
	DB	0f7H
	DB	07eH
	DB	0f7H
	DB	09eH
	DB	0f7H
	DB	09eH
	DB	0f7H
	DB	07eH
	DB	0f7H
	DB	07eH
	DB	0f7H
	DB	09eH
	DB	0f7H
	DB	07dH
	DB	0efH
	DB	07eH
	DB	0f7H
	DB	09eH
	DB	0f7H
	DB	07eH
	DB	0f7H
	DB	07eH
	DB	0f7H
	DB	07eH
	DB	0f7H
	DB	09eH
	DB	0f7H
	DB	07dH
	DB	0efH
	DB	09eH
	DB	0f7H
	DB	09eH
	DB	0f7H
	DB	07eH
	DB	0f7H
	DB	07dH
	DB	0efH
	DB	07eH
	DB	0f7H
	DB	07eH
	DB	0f7H
	DB	09dH
	DB	0efH
	DB	07eH
	DB	0f7H
	DB	09eH
	DB	0f7H
	DB	07dH
	DB	0efH
	DB	09eH
	DB	0f7H
	DB	07eH
	DB	0f7H
	DB	07dH
	DB	0efH
	DB	09eH
	DB	0f7H
	DB	09eH
	DB	0f7H
	DB	07dH
	DB	0efH
	DB	09eH
	DB	0f7H
	DB	07eH
	DB	0f7H
	DB	09eH
	DB	0f7H
	DB	07eH
	DB	0f7H
	DB	09eH
	DB	0f7H
	DB	09eH
	DB	0f7H
	DB	07dH
	DB	0efH
	DB	09eH
	DB	0f7H
	DB	07eH
	DB	0f7H
	DB	07dH
	DB	0efH
	DB	09eH
	DB	0f7H
	DB	07eH
	DB	0f7H
	DB	07dH
	DB	0efH
	DB	09eH
	DB	0f7H
	DB	07eH
	DB	0f7H
	DB	09eH
	DB	0f7H
	DB	09eH
	DB	0f7H
	DB	07eH
	DB	0f7H
	DB	09eH
	DB	0f7H
	DB	09dH
	DB	0efH
	DB	07eH
	DB	0f7H
	DB	07eH
	DB	0f7H
	DB	09dH
	DB	0efH
	DB	07eH
	DB	0f7H
	DB	09eH
	DB	0f7H
	DB	07eH
	DB	0f7H
	DB	07eH
	DB	0f7H
	DB	09eH
	DB	0f7H
	DB	07eH
	DB	0f7H
	DB	07eH
	DB	0f7H
	DB	09dH
	DB	0efH
	DB	07eH
	DB	0f7H
	DB	09eH
	DB	0f7H
	DB	09dH
	DB	0efH
	DB	07eH
	DB	0f7H
	DB	09eH
	DB	0f7H
	DB	07dH
	DB	0efH
	DB	09eH
	DB	0f7H
	DB	07eH
	DB	0f7H
	DB	07eH
	DB	0f7H
	DB	09eH
	DB	0f7H
	DB	09eH
	DB	0f7H
	DB	07eH
	DB	0f7H
	DB	09dH
	DB	0efH
	DB	07eH
	DB	0f7H
	DB	07eH
	DB	0f7H
	DB	09dH
	DB	0efH
	DB	07eH
	DB	0f7H
	DB	07eH
	DB	0f7H
	DB	09eH
	DB	0f7H
	DB	07eH
	DB	0f7H
	DB	09eH
	DB	0f7H
	DB	09eH
	DB	0f7H
	DB	07eH
	DB	0f7H
	DB	09dH
	DB	0efH
	DB	09eH
	DB	0f7H
	DB	07eH
	DB	0f7H
	DB	07dH
	DB	0efH
	DB	09eH
	DB	0f7H
	DB	07eH
	DB	0f7H
	DB	09dH
	DB	0efH
	DB	07eH
	DB	0f7H
	DB	07eH
	DB	0f7H
	DB	09eH
	DB	0f7H
	DB	07eH
	DB	0f7H
	DB	07eH
	DB	0f7H
	DB	09eH
	DB	0f7H
	DB	07dH
	DB	0efH
	DB	09eH
	DB	0f7H
	DB	09eH
	DB	0f7H
	DB	07dH
	DB	0efH
	DB	09eH
	DB	0f7H
	DB	07eH
	DB	0f7H
	DB	09eH
	DB	0f7H
	DB	07eH
	DB	0f7H
	DB	07eH
	DB	0f7H
	DB	09eH
	DB	0f7H
	DB	09eH
	DB	0f7H
	DB	07dH
	DB	0efH
	DB	09eH
	DB	0f7H
	DB	07eH
	DB	0f7H
	DB	07dH
	DB	0efH
	DB	09eH
	DB	0f7H
	DB	07eH
	DB	0f7H
	DB	07dH
	DB	0efH
	DB	09eH
	DB	0f7H
	DB	07eH
	DB	0f7H
	DB	09eH
	DB	0f7H
	DB	09eH
	DB	0f7H
	DB	07eH
	DB	0f7H
	DB	09eH
	DB	0f7H
	DB	09dH
	DB	0efH
	DB	07eH
	DB	0f7H
	DB	07eH
	DB	0f7H
	DB	09dH
	DB	0efH
	DB	07eH
	DB	0f7H
	DB	09eH
	DB	0f7H
	DB	07eH
	DB	0f7H
	DB	07eH
	DB	0f7H
	DB	09eH
	DB	0f7H
	DB	07eH
	DB	0f7H
	DB	07eH
	DB	0f7H
	DB	09dH
	DB	0efH
	DB	07eH
	DB	0f7H
	DB	09eH
	DB	0f7H
	DB	09dH
	DB	0efH
	DB	07eH
	DB	0f7H
	DB	09eH
	DB	0f7H
	DB	07dH
	DB	0efH
	DB	09eH
	DB	0f7H
	DB	07eH
	DB	0f7H
	DB	07eH
	DB	0f7H
	DB	09eH
	DB	0f7H
	DB	09eH
	DB	0f7H
	DB	07eH
	DB	0f7H
	DB	09dH
	DB	0efH
	DB	07eH
	DB	0f7H
	DB	07eH
	DB	0f7H
	DB	09dH
	DB	0efH
	DB	07eH
	DB	0f7H
	DB	07eH
	DB	0f7H
	DB	09eH
	DB	0f7H
	DB	07eH
	DB	0f7H
	DB	09eH
	DB	0f7H
	DB	09eH
	DB	0f7H
	DB	07eH
	DB	0f7H
	DB	09dH
	DB	0efH
	DB	09eH
	DB	0f7H
	DB	07eH
	DB	0f7H
	DB	07dH
	DB	0efH
	DB	09eH
	DB	0f7H
	DB	07eH
	DB	0f7H
	DB	09dH
	DB	0efH
	DB	07eH
	DB	0f7H
	DB	07eH
	DB	0f7H
	DB	09eH
	DB	0f7H
	DB	07eH
	DB	0f7H
	DB	07eH
	DB	0f7H
	DB	09eH
	DB	0f7H
	DB	07dH
	DB	0efH
	DB	09eH
	DB	0f7H
	DB	09eH
	DB	0f7H
	DB	07dH
	DB	0efH
	DB	09eH
	DB	0f7H
	DB	07eH
	DB	0f7H
	DB	09eH
	DB	0f7H
	DB	07eH
	DB	0f7H
	DB	07eH
	DB	0f7H
	DB	09eH
	DB	0f7H
	DB	09eH
	DB	0f7H
	DB	07dH
	DB	0efH
	DB	09eH
	DB	0f7H
	DB	07eH
	DB	0f7H
	DB	09dH
	DB	0efH
	DB	07eH
	DB	0f7H
	DB	09eH
	DB	0f7H
	DB	07eH
	DB	0f7H
	DB	07dH
	DB	0efH
	DB	09eH
	DB	0f7H
	DB	07eH
	DB	0f7H
	DB	07eH
	DB	0f7H
	DB	09dH
	DB	0efH
	DB	07eH
	DB	0f7H
	DB	07eH
	DB	0f7H
	DB	09dH
	DB	0efH
	DB	07eH
	DB	0f7H
	DB	09eH
	DB	0f7H
	DB	07eH
	DB	0f7H
	DB	07eH
	DB	0f7H
	DB	09eH
	DB	0f7H
	DB	07eH
	DB	0f7H
	DB	07dH
	DB	0efH
	DB	09eH
	DB	0f7H
	DB	09eH
	DB	0f7H
	DB	07dH
	DB	0efH
	DB	09eH
	DB	0f7H
	DB	07eH
	DB	0f7H
	DB	07dH
	DB	0efH
	DB	09eH
	DB	0f7H
	DB	07eH
	DB	0f7H
	DB	07eH
	DB	0f7H
	DB	09eH
	DB	0f7H
	DB	07eH
	DB	0f7H
	DB	09eH
	DB	0f7H
	DB	09dH
	DB	0efH
	DB	07eH
	DB	0f7H
	DB	09eH
	DB	0f7H
	DB	09dH
	DB	0efH
	DB	07eH
	DB	0f7H
	DB	07eH
	DB	0f7H
	DB	09eH
	DB	0f7H
	DB	07eH
	DB	0f7H
	DB	09eH
	DB	0f7H
	DB	07eH
	DB	0f7H
	DB	07eH
	DB	0f7H
	DB	09dH
	DB	0efH
	DB	07eH
	DB	0f7H
	DB	07eH
	DB	0f7H
	DB	09dH
	DB	0efH
	DB	07eH
	DB	0f7H
	DB	09eH
	DB	0f7H
	DB	09dH
	DB	0efH
	DB	07eH
	DB	0f7H
	DB	09eH
	DB	0f7H
	DB	07eH
	DB	0f7H
	DB	09eH
	DB	0f7H
	DB	07eH
	DB	0f7H
	DB	07eH
	DB	0f7H
	DB	09dH
	DB	0efH
	DB	09eH
	DB	0f7H
	DB	07eH
	DB	0f7H
	DB	09dH
	DB	0efH
	DB	07eH
	DB	0f7H
	DB	07eH
	DB	0f7H
	DB	09eH
	DB	0f7H
	DB	07eH
	DB	0f7H
	DB	07eH
	DB	0f7H
	DB	09eH
	DB	0f7H
	DB	07eH
	DB	0f7H
	DB	09dH
	DB	0efH
	DB	09eH
	DB	0f7H
	DB	07eH
	DB	0f7H
	DB	09dH
	DB	0efH
	DB	09eH
	DB	0f7H
	DB	07eH
	DB	0f7H
	DB	07dH
	DB	0efH
	DB	09eH
	DB	0f7H
	DB	07eH
	DB	0f7H
	DB	09eH
	DB	0f7H
	DB	07eH
	DB	0f7H
	DB	07eH
	DB	0f7H
	DB	09eH
	DB	0f7H
	DB	07dH
	DB	0efH
	DB	07eH
	DB	0f7H
	DB	09eH
	DB	0f7H
	DB	07dH
	DB	0efH
	DB	09eH
	DB	0f7H
	DB	09eH
	DB	0f7H
	DB	07eH
	DB	0f7H
	DB	09eH
	DB	0f7H
	DB	07eH
	DB	0f7H
	DB	09eH
	DB	0f7H
	DB	07eH
	DB	0f7H
	DB	07dH
	DB	0efH
	DB	09eH
	DB	0f7H
	DB	09eH
	DB	0f7H
	DB	07dH
	DB	0efH
	DB	09eH
	DB	0f7H
	DB	07eH
	DB	0f7H
	DB	07dH
	DB	0efH
	DB	09eH
	DB	0f7H
	DB	07eH
	DB	0f7H
	DB	07eH
	DB	0f7H
	DB	09eH
	DB	0f7H
	DB	07eH
	DB	0f7H
	DB	09eH
	DB	0f7H
	DB	09dH
	DB	0efH
	DB	07eH
	DB	0f7H
	DB	09eH
	DB	0f7H
	DB	09dH
	DB	0efH
	DB	07eH
	DB	0f7H
	DB	07eH
	DB	0f7H
	DB	09eH
	DB	0f7H
	DB	07eH
	DB	0f7H
	DB	09eH
	DB	0f7H
	DB	07eH
	DB	0f7H
	DB	07eH
	DB	0f7H
	DB	09dH
	DB	0efH
	DB	07eH
	DB	0f7H
	DB	07eH
	DB	0f7H
	DB	09dH
	DB	0efH
	DB	07eH
	DB	0f7H
	DB	09eH
	DB	0f7H
	DB	09dH
	DB	0efH
	DB	07eH
	DB	0f7H
	DB	09eH
	DB	0f7H
	DB	07eH
	DB	0f7H
	DB	09eH
	DB	0f7H
	DB	07eH
	DB	0f7H
	DB	07eH
	DB	0f7H
	DB	09dH
	DB	0efH
	DB	09eH
	DB	0f7H
	DB	07eH
	DB	0f7H
	DB	09dH
	DB	0efH
	DB	07eH
	DB	0f7H
	DB	07eH
	DB	0f7H
	DB	09eH
	DB	0f7H
	DB	07eH
	DB	0f7H
	DB	07eH
	DB	0f7H
	DB	09eH
	DB	0f7H
	DB	07eH
	DB	0f7H
	DB	09dH
	DB	0efH
	DB	09eH
	DB	0f7H
	DB	07eH
	DB	0f7H
	DB	09dH
	DB	0efH
	DB	09eH
	DB	0f7H
	DB	07eH
	DB	0f7H
	DB	07dH
	DB	0efH
	DB	09eH
	DB	0f7H
	DB	07eH
	DB	0f7H
	DB	09eH
	DB	0f7H
	DB	07eH
	DB	0f7H
	DB	07eH
	DB	0f7H
	DB	09eH
	DB	0f7H
	DB	07dH
	DB	0efH
	DB	07eH
	DB	0f7H
	DB	09eH
	DB	0f7H
	DB	07dH
	DB	0efH
	DB	09eH
	DB	0f7H
	DB	09eH
	DB	0f7H
	DB	07eH
	DB	0f7H
	DB	09eH
	DB	0f7H
	DB	07eH
	DB	0f7H
	DB	09eH
	DB	0f7H
	DB	07eH
	DB	0f7H
	DB	07dH
	DB	0efH
	DB	09eH
	DB	0f7H
	DB	09eH
	DB	0f7H
	DB	07dH
	DB	0efH
	DB	09eH
	DB	0f7H
	DB	07eH
	DB	0f7H
	DB	07dH
	DB	0efH
	DB	09eH
	DB	0f7H
	DB	07eH
	DB	0f7H
	DB	07eH
	DB	0f7H
	DB	09eH
	DB	0f7H
	DB	07eH
	DB	0f7H
	DB	09eH
	DB	0f7H
	DB	09dH
	DB	0efH
	DB	07eH
	DB	0f7H
	DB	09eH
	DB	0f7H
	DB	09dH
	DB	0efH
	DB	07eH
	DB	0f7H
	DB	07eH
	DB	0f7H
	DB	09eH
	DB	0f7H
	DB	07eH
	DB	0f7H
	DB	09eH
	DB	0f7H
	DB	07eH
	DB	0f7H
	DB	07eH
	DB	0f7H
	DB	09dH
	DB	0efH
	DB	07eH
	DB	0f7H
	DB	07eH
	DB	0f7H
	DB	09dH
	DB	0efH
	DB	07eH
	DB	0f7H
	DB	09eH
	DB	0f7H
	DB	09dH
	DB	0efH
	DB	07eH
	DB	0f7H
	DB	09eH
	DB	0f7H
	DB	07eH
	DB	0f7H
	DB	09eH
	DB	0f7H
	DB	07eH
	DB	0f7H
	DB	07eH
	DB	0f7H
	DB	09dH
	DB	0efH
	DB	09eH
	DB	0f7H
	DB	07eH
	DB	0f7H
	DB	09dH
	DB	0efH
	DB	07eH
	DB	0f7H
	DB	07eH
	DB	0f7H
	DB	09eH
	DB	0f7H
	DB	07eH
	DB	0f7H
	DB	07eH
	DB	0f7H
	DB	09eH
	DB	0f7H
	DB	07eH
	DB	0f7H
	DB	09dH
	DB	0efH
	DB	09eH
	DB	0f7H
	DB	07eH
	DB	0f7H
	DB	09dH
	DB	0efH
	DB	09eH
	DB	0f7H
	DB	07eH
	DB	0f7H
	DB	07dH
	DB	0efH
	DB	09eH
	DB	0f7H
	DB	07eH
	DB	0f7H
	DB	09eH
	DB	0f7H
	DB	07eH
	DB	0f7H
	DB	07eH
	DB	0f7H
	DB	09eH
	DB	0f7H
	DB	07dH
	DB	0efH
	DB	07eH
	DB	0f7H
	DB	09eH
	DB	0f7H
	DB	07dH
	DB	0efH
	DB	09eH
	DB	0f7H
	DB	09eH
	DB	0f7H
	DB	07eH
	DB	0f7H
	DB	09eH
	DB	0f7H
	DB	07eH
	DB	0f7H
	DB	09eH
	DB	0f7H
	DB	07eH
	DB	0f7H
	DB	07dH
	DB	0efH
	DB	09eH
	DB	0f7H
	DB	09eH
	DB	0f7H
	DB	07dH
	DB	0efH
	DB	09eH
	DB	0f7H
	DB	07eH
	DB	0f7H
	DB	07dH
	DB	0efH
	DB	09eH
	DB	0f7H
	DB	07eH
	DB	0f7H
	DB	07eH
	DB	0f7H
	DB	09eH
	DB	0f7H
	DB	07eH
	DB	0f7H
	DB	09eH
	DB	0f7H
	DB	09dH
	DB	0efH
	DB	07eH
	DB	0f7H
	DB	09eH
	DB	0f7H
	DB	09dH
	DB	0efH
	DB	07eH
	DB	0f7H
	DB	07eH
	DB	0f7H
	DB	09eH
	DB	0f7H
	DB	07eH
	DB	0f7H
	DB	09eH
	DB	0f7H
	DB	07eH
	DB	0f7H
	DB	07eH
	DB	0f7H
	DB	09dH
	DB	0efH
	DB	07eH
	DB	0f7H
	DB	07eH
	DB	0f7H
	DB	09dH
	DB	0efH
	DB	07eH
	DB	0f7H
	DB	09eH
	DB	0f7H
	DB	09dH
	DB	0efH
	DB	07eH
	DB	0f7H
	DB	09eH
	DB	0f7H
	DB	07eH
	DB	0f7H
	DB	09eH
	DB	0f7H
	DB	07eH
	DB	0f7H
	DB	07eH
	DB	0f7H
	DB	09dH
	DB	0efH
	DB	09eH
	DB	0f7H
	DB	07eH
	DB	0f7H
	DB	09dH
	DB	0efH
	DB	07eH
	DB	0f7H
	DB	07eH
	DB	0f7H
	DB	09eH
	DB	0f7H
	DB	07eH
	DB	0f7H
	DB	07eH
	DB	0f7H
	DB	09eH
	DB	0f7H
	DB	07eH
	DB	0f7H
	DB	09dH
	DB	0efH
	DB	09eH
	DB	0f7H
	DB	07eH
	DB	0f7H
	DB	09dH
	DB	0efH
	DB	09eH
	DB	0f7H
	DB	07eH
	DB	0f7H
	DB	07dH
	DB	0efH
	DB	09eH
	DB	0f7H
	DB	07eH
	DB	0f7H
	DB	09eH
	DB	0f7H
	DB	07eH
	DB	0f7H
	DB	07eH
	DB	0f7H
	DB	09eH
	DB	0f7H
	DB	07dH
	DB	0efH
	DB	07eH
	DB	0f7H
	DB	09eH
	DB	0f7H
	DB	07dH
	DB	0efH
	DB	09eH
	DB	0f7H
	DB	09eH
	DB	0f7H
	DB	07eH
	DB	0f7H
	DB	09eH
	DB	0f7H
	DB	07eH
	DB	0f7H
	DB	09eH
	DB	0f7H
	DB	07eH
	DB	0f7H
	DB	09dH
	DB	0efH
	DB	09eH
	DB	0f7H
	DB	07eH
	DB	0f7H
	DB	07eH
	DB	0f7H
	DB	07eH
	DB	0f7H
	DB	09dH
	DB	0efH
	DB	07eH
	DB	0f7H
	DB	09eH
	DB	0f7H
	DB	09eH
	DB	0f7H
	DB	07eH
	DB	0f7H
	DB	09eH
	DB	0f7H
	DB	07eH
	DB	0f7H
	DB	09dH
	DB	0efH
	DB	07eH
	DB	0f7H
	DB	07eH
	DB	0f7H
	DB	09dH
	DB	0efH
	DB	09eH
	DB	0f7H
	DB	07eH
	DB	0f7H
	DB	07dH
	DB	0efH
	DB	09eH
	DB	0f7H
	DB	07eH
	DB	0f7H
	DB	09dH
	DB	0efH
	DB	09eH
	DB	0f7H
	DB	07dH
	DB	0efH
	DB	09eH
	DB	0f7H
	DB	07eH
	DB	0f7H
	DB	07dH
	DB	0efH
	DB	09eH
	DB	0f7H
	DB	09eH
	DB	0f7H
	DB	07dH
	DB	0efH
	DB	09eH
	DB	0f7H
	DB	09eH
	DB	0f7H
	DB	07dH
	DB	0efH
	DB	09eH
	DB	0f7H
	DB	07eH
	DB	0f7H
	DB	07dH
	DB	0efH
	DB	09eH
	DB	0f7H
	DB	07dH
	DB	0efH
	DB	07eH
	DB	0f7H
	DB	09eH
	DB	0f7H
	DB	07dH
	DB	0efH
	DB	09eH
	DB	0f7H
	DB	09eH
	DB	0f7H
	DB	07dH
	DB	0efH
	DB	07eH
	DB	0f7H
	DB	09dH
	DB	0efH
	DB	09dH
	DB	0efH
	DB	07eH
	DB	0f7H
	DB	09eH
	DB	0f7H
	DB	09dH
	DB	0efH
	DB	07eH
	DB	0f7H
	DB	09eH
	DB	0f7H
	DB	07dH
	DB	0efH
	DB	07eH
	DB	0f7H
	DB	09eH
	DB	0f7H
	DB	07dH
	DB	0efH
	DB	09eH
	DB	0f7H
	DB	09eH
	DB	0f7H
	DB	07dH
	DB	0efH
	DB	09eH
	DB	0f7H
	DB	07eH
	DB	0f7H
	DB	07dH
	DB	0efH
	DB	07eH
	DB	0f7H
	DB	09dH
	DB	0efH
	DB	09eH
	DB	0f7H
	DB	07eH
	DB	0f7H
	DB	09dH
	DB	0efH
	DB	09eH
	DB	0f7H
	DB	07eH
	DB	0f7H
	DB	09dH
	DB	0efH
	DB	07dH
	DB	0efH
	DB	07eH
	DB	0f7H
	DB	09eH
	DB	0f7H
	DB	07dH
	DB	0efH
	DB	07eH
	DB	0f7H
	DB	09eH
	DB	0f7H
	DB	07dH
	DB	0efH
	DB	09eH
	DB	0f7H
	DB	09eH
	DB	0f7H
	DB	07dH
	DB	0efH
	DB	07eH
	DB	0f7H
	DB	09eH
	DB	0f7H
	DB	09dH
	DB	0efH
	DB	07eH
	DB	0f7H
	DB	09eH
	DB	0f7H
	DB	09dH
	DB	0efH
	DB	07eH
	DB	0f7H
	DB	09dH
	DB	0efH
	DB	07eH
	DB	0f7H
	DB	07eH
	DB	0f7H
	DB	09dH
	DB	0efH
	DB	07eH
	DB	0f7H
	DB	09eH
	DB	0f7H
	DB	09dH
	DB	0efH
	DB	07dH
	DB	0efH
	DB	09eH
	DB	0f7H
	DB	07eH
	DB	0f7H
	DB	07dH
	DB	0efH
	DB	07eH
	DB	0f7H
	DB	09eH
	DB	0f7H
	DB	09dH
	DB	0efH
	DB	07eH
	DB	0f7H
	DB	09eH
	DB	0f7H
	DB	09dH
	DB	0efH
	DB	07eH
	DB	0f7H
	DB	09eH
	DB	0f7H
	DB	07dH
	DB	0efH
	DB	07eH
	DB	0f7H
	DB	09eH
	DB	0f7H
	DB	07dH
	DB	0efH
	DB	07eH
	DB	0f7H
	DB	09dH
	DB	0efH
	DB	07eH
	DB	0f7H
	DB	09eH
	DB	0f7H
	DB	09dH
	DB	0efH
	DB	07eH
	DB	0f7H
	DB	07eH
	DB	0f7H
	DB	09dH
	DB	0efH
	DB	09dH
	DB	0efH
	DB	07eH
	DB	0f7H
	DB	09eH
	DB	0f7H
	DB	09dH
	DB	0efH
	DB	07eH
	DB	0f7H
	DB	09eH
	DB	0f7H
	DB	07dH
	DB	0efH
	DB	07eH
	DB	0f7H
	DB	09eH
	DB	0f7H
	DB	07dH
	DB	0efH
	DB	09eH
	DB	0f7H
	DB	09eH
	DB	0f7H
	DB	07dH
	DB	0efH
	DB	09eH
	DB	0f7H
	DB	07eH
	DB	0f7H
	DB	07dH
	DB	0efH
	DB	07eH
	DB	0f7H
	DB	09dH
	DB	0efH
	DB	09eH
	DB	0f7H
	DB	07eH
	DB	0f7H
	DB	09dH
	DB	0efH
	DB	09eH
	DB	0f7H
	DB	07eH
	DB	0f7H
	DB	09dH
	DB	0efH
	DB	07dH
	DB	0efH
	DB	07eH
	DB	0f7H
	DB	09eH
	DB	0f7H
	DB	07dH
	DB	0efH
	DB	07eH
	DB	0f7H
	DB	09eH
	DB	0f7H
	DB	07dH
	DB	0efH
	DB	09eH
	DB	0f7H
	DB	09eH
	DB	0f7H
	DB	07dH
	DB	0efH
	DB	07eH
	DB	0f7H
	DB	09eH
	DB	0f7H
	DB	09dH
	DB	0efH
	DB	07eH
	DB	0f7H
	DB	09eH
	DB	0f7H
	DB	09dH
	DB	0efH
	DB	07eH
	DB	0f7H
	DB	09dH
	DB	0efH
	DB	07eH
	DB	0f7H
	DB	07eH
	DB	0f7H
	DB	09dH
	DB	0efH
	DB	07eH
	DB	0f7H
	DB	09eH
	DB	0f7H
	DB	09dH
	DB	0efH
	DB	07dH
	DB	0efH
	DB	09eH
	DB	0f7H
	DB	07eH
	DB	0f7H
	DB	07dH
	DB	0efH
	DB	09eH
	DB	0f7H
	DB	07eH
	DB	0f7H
	DB	09dH
	DB	0efH
	DB	09eH
	DB	0f7H
	DB	07eH
	DB	0f7H
	DB	09dH
	DB	0efH
	DB	07eH
	DB	0f7H
	DB	09eH
	DB	0f7H
	DB	09eH
	DB	0f7H
	DB	07eH
	DB	0f7H
	DB	09eH
	DB	0f7H
	DB	07dH
	DB	0efH
	DB	09eH
	DB	0f7H
	DB	09eH
	DB	0f7H
	DB	07dH
	DB	0efH
	DB	09eH
	DB	0f7H
	DB	07eH
	DB	0f7H
	DB	09dH
	DB	0efH
	DB	07eH
	DB	0f7H
	DB	09dH
	DB	0efH
	DB	09eH
	DB	0f7H
	DB	07eH
	DB	0f7H
	DB	07dH
	DB	0efH
	DB	09eH
	DB	0f7H
	DB	07eH
	DB	0f7H
	DB	09dH
	DB	0efH
	DB	09eH
	DB	0f7H
	DB	07eH
	DB	0f7H
	DB	09dH
	DB	0efH
	DB	09eH
	DB	0f7H
	DB	07eH
	DB	0f7H
	DB	09dH
	DB	0efH
	DB	07eH
	DB	0f7H
	DB	07dH
	DB	0efH
	DB	09eH
	DB	0f7H
	DB	07eH
	DB	0f7H
	DB	07dH
	DB	0efH
	DB	09eH
	DB	0f7H
	DB	07eH
	DB	0f7H
	DB	09dH
	DB	0efH
	DB	09dH
	DB	0efH
	DB	07eH
	DB	0f7H
	DB	07dH
	DB	0efH
	DB	09eH
	DB	0f7H
	DB	09eH
	DB	0f7H
	DB	07dH
	DB	0efH
	DB	09eH
	DB	0f7H
	DB	09eH
	DB	0f7H
	DB	07dH
	DB	0efH
	DB	09eH
	DB	0f7H
	DB	07eH
	DB	0f7H
	DB	07dH
	DB	0efH
	DB	09eH
	DB	0f7H
	DB	07eH
	DB	0f7H
	DB	09dH
	DB	0efH
	DB	09eH
	DB	0f7H
	DB	07dH
	DB	0efH
	DB	09eH
	DB	0f7H
	DB	07eH
	DB	0f7H
	DB	07dH
	DB	0efH
	DB	07eH
	DB	0f7H
	DB	09eH
	DB	0f7H
	DB	09dH
	DB	0efH
	DB	07eH
	DB	0f7H
	DB	09dH
	DB	0efH
	DB	09dH
	DB	0efH
	DB	07eH
	DB	0f7H
	DB	09eH
	DB	0f7H
	DB	07dH
	DB	0efH
	DB	07eH
	DB	0f7H
	DB	09eH
	DB	0f7H
	DB	07dH
	DB	0efH
	DB	07eH
	DB	0f7H
	DB	09eH
	DB	0f7H
	DB	07dH
	DB	0efH
	DB	09eH
	DB	0f7H
	DB	09eH
	DB	0f7H
	DB	07dH
	DB	0efH
	DB	07eH
	DB	0f7H
	DB	09eH
	DB	0f7H
	DB	09dH
	DB	0efH
	DB	07eH
	DB	0f7H
	DB	09dH
	DB	0efH
	DB	09eH
	DB	0f7H
	DB	07eH
	DB	0f7H
	DB	09dH
	DB	0efH
	DB	07eH
	DB	0f7H
	DB	07eH
	DB	0f7H
	DB	09dH
	DB	0efH
	DB	07dH
	DB	0efH
	DB	09eH
	DB	0f7H
	DB	09eH
	DB	0f7H
	DB	07dH
	DB	0efH
	DB	09eH
	DB	0f7H
	DB	07eH
	DB	0f7H
	DB	07dH
	DB	0efH
	DB	07eH
	DB	0f7H
	DB	09eH
	DB	0f7H
	DB	09dH
	DB	0efH
	DB	07eH
	DB	0f7H
	DB	09eH
	DB	0f7H
	DB	09dH
	DB	0efH
	DB	07eH
	DB	0f7H
	DB	09eH
	DB	0f7H
	DB	07dH
	DB	0efH
	DB	07eH
	DB	0f7H
	DB	09dH
	DB	0efH
	DB	07eH
	DB	0f7H
	DB	07eH
	DB	0f7H
	DB	09dH
	DB	0efH
	DB	07eH
	DB	0f7H
	DB	09eH
	DB	0f7H
	DB	09dH
	DB	0efH
	DB	07dH
	DB	0efH
	DB	07eH
	DB	0f7H
	DB	09eH
	DB	0f7H
	DB	09dH
	DB	0efH
	DB	07eH
	DB	0f7H
	DB	09eH
	DB	0f7H
	DB	09dH
	DB	0efH
	DB	07eH
	DB	0f7H
	DB	09eH
	DB	0f7H
	DB	07dH
	DB	0efH
	DB	07eH
	DB	0f7H
	DB	09eH
	DB	0f7H
	DB	07dH
	DB	0efH
	DB	09eH
	DB	0f7H
	DB	09eH
	DB	0f7H
	DB	07dH
	DB	0efH
	DB	09eH
	DB	0f7H
	DB	07dH
	DB	0efH
	DB	07eH
	DB	0f7H
	DB	07eH
	DB	0f7H
	DB	09dH
	DB	0efH
	DB	09eH
	DB	0f7H
	DB	07eH
	DB	0f7H
	DB	09dH
	DB	0efH
	DB	09dH
	DB	0efH
	DB	07eH
	DB	0f7H
	DB	09eH
	DB	0f7H
	DB	07dH
	DB	0efH
	DB	07eH
	DB	0f7H
	DB	09eH
	DB	0f7H
	DB	07dH
	DB	0efH
	DB	07eH
	DB	0f7H
	DB	09eH
	DB	0f7H
	DB	07dH
	DB	0efH
	DB	09eH
	DB	0f7H
	DB	09eH
	DB	0f7H
	DB	07dH
	DB	0efH
	DB	07eH
	DB	0f7H
	DB	09eH
	DB	0f7H
	DB	09dH
	DB	0efH
	DB	07eH
	DB	0f7H
	DB	09dH
	DB	0efH
	DB	09eH
	DB	0f7H
	DB	07eH
	DB	0f7H
	DB	09dH
	DB	0efH
	DB	07eH
	DB	0f7H
	DB	07eH
	DB	0f7H
	DB	09dH
	DB	0efH
	DB	07dH
	DB	0efH
	DB	09eH
	DB	0f7H
	DB	09eH
	DB	0f7H
	DB	07dH
	DB	0efH
	DB	09eH
	DB	0f7H
	DB	07eH
	DB	0f7H
	DB	07dH
	DB	0efH
	DB	07eH
	DB	0f7H
	DB	09eH
	DB	0f7H
	DB	09dH
	DB	0efH
	DB	07eH
	DB	0f7H
	DB	09eH
	DB	0f7H
	DB	09dH
	DB	0efH
	DB	07eH
	DB	0f7H
	DB	09eH
	DB	0f7H
	DB	07dH
	DB	0efH
	DB	07eH
	DB	0f7H
	DB	09dH
	DB	0efH
	DB	07eH
	DB	0f7H
	DB	07eH
	DB	0f7H
	DB	09dH
	DB	0efH
	DB	07eH
	DB	0f7H
	DB	09eH
	DB	0f7H
	DB	09dH
	DB	0efH
	DB	07dH
	DB	0efH
	DB	07eH
	DB	0f7H
	DB	09eH
	DB	0f7H
	DB	09dH
	DB	0efH
	DB	07eH
	DB	0f7H
	DB	09eH
	DB	0f7H
	DB	09dH
	DB	0efH
	DB	07eH
	DB	0f7H
	DB	09eH
	DB	0f7H
	DB	07dH
	DB	0efH
	DB	07eH
	DB	0f7H
	DB	09eH
	DB	0f7H
	DB	07dH
	DB	0efH
	DB	09eH
	DB	0f7H
	DB	09eH
	DB	0f7H
	DB	07dH
	DB	0efH
	DB	09eH
	DB	0f7H
	DB	07dH
	DB	0efH
	DB	07eH
	DB	0f7H
	DB	07eH
	DB	0f7H
	DB	09dH
	DB	0efH
	DB	09eH
	DB	0f7H
	DB	07eH
	DB	0f7H
	DB	09dH
	DB	0efH
	DB	09dH
	DB	0efH
	DB	07eH
	DB	0f7H
	DB	09eH
	DB	0f7H
	DB	07dH
	DB	0efH
	DB	07eH
	DB	0f7H
	DB	09eH
	DB	0f7H
	DB	07dH
	DB	0efH
	DB	07eH
	DB	0f7H
	DB	09eH
	DB	0f7H
	DB	07dH
	DB	0efH
	DB	09eH
	DB	0f7H
	DB	09eH
	DB	0f7H
	DB	07dH
	DB	0efH
	DB	07eH
	DB	0f7H
	DB	09eH
	DB	0f7H
	DB	09dH
	DB	0efH
	DB	07eH
	DB	0f7H
	DB	09dH
	DB	0efH
	DB	09eH
	DB	0f7H
	DB	07eH
	DB	0f7H
	DB	09dH
	DB	0efH
	DB	07eH
	DB	0f7H
	DB	07eH
	DB	0f7H
	DB	09dH
	DB	0efH
	DB	07dH
	DB	0efH
	DB	09eH
	DB	0f7H
	DB	09eH
	DB	0f7H
	DB	07dH
	DB	0efH
	DB	09eH
	DB	0f7H
	DB	07eH
	DB	0f7H
	DB	07dH
	DB	0efH
	DB	07eH
	DB	0f7H
	DB	09eH
	DB	0f7H
	DB	09dH
	DB	0efH
	DB	07eH
	DB	0f7H
	DB	09eH
	DB	0f7H
	DB	09dH
	DB	0efH
	DB	07eH
	DB	0f7H
	DB	09eH
	DB	0f7H
	DB	07dH
	DB	0efH
	DB	07eH
	DB	0f7H
	DB	09dH
	DB	0efH
	DB	07eH
	DB	0f7H
	DB	07eH
	DB	0f7H
	DB	09dH
	DB	0efH
	DB	07eH
	DB	0f7H
	DB	09eH
	DB	0f7H
	DB	09dH
	DB	0efH
	DB	07dH
	DB	0efH
	DB	07eH
	DB	0f7H
	DB	09eH
	DB	0f7H
	DB	09dH
	DB	0efH
	DB	07eH
	DB	0f7H
	DB	09eH
	DB	0f7H
	DB	09dH
	DB	0efH
	DB	07eH
	DB	0f7H
	DB	09eH
	DB	0f7H
	DB	07dH
	DB	0efH
	DB	07eH
	DB	0f7H
	DB	09eH
	DB	0f7H
	DB	07dH
	DB	0efH
	DB	09eH
	DB	0f7H
	DB	09eH
	DB	0f7H
	DB	07dH
	DB	0efH
	DB	09eH
	DB	0f7H
	DB	07dH
	DB	0efH
	DB	07eH
	DB	0f7H
	DB	07eH
	DB	0f7H
	DB	09dH
	DB	0efH
	DB	09eH
	DB	0f7H
	DB	07eH
	DB	0f7H
	DB	09dH
	DB	0efH
	DB	09dH
	DB	0efH
	DB	07eH
	DB	0f7H
	DB	09eH
	DB	0f7H
	DB	07dH
	DB	0efH
	DB	07eH
	DB	0f7H
	DB	09eH
	DB	0f7H
	DB	07dH
	DB	0efH
	DB	07eH
	DB	0f7H
	DB	09eH
	DB	0f7H
	DB	07dH
	DB	0efH
	DB	09eH
	DB	0f7H
	DB	09eH
	DB	0f7H
	DB	07dH
	DB	0efH
	DB	07eH
	DB	0f7H
	DB	09eH
	DB	0f7H
	DB	09dH
	DB	0efH
	DB	07eH
	DB	0f7H
	DB	09dH
	DB	0efH
	DB	09eH
	DB	0f7H
	DB	07eH
	DB	0f7H
	DB	09dH
	DB	0efH
	DB	07eH
	DB	0f7H
	DB	07eH
	DB	0f7H
	DB	09dH
	DB	0efH
	DB	07dH
	DB	0efH
	DB	09eH
	DB	0f7H
	DB	09eH
	DB	0f7H
	DB	07dH
	DB	0efH
	DB	09eH
	DB	0f7H
	DB	07eH
	DB	0f7H
	DB	09dH
	DB	0efH
	DB	09eH
	DB	0f7H
	DB	09eH
	DB	0f7H
	DB	07eH
	DB	0f7H
	DB	07eH
	DB	0f7H
	DB	09dH
	DB	0efH
	DB	07eH
	DB	0f7H
	DB	09eH
	DB	0f7H
	DB	07dH
	DB	0efH
	DB	07eH
	DB	0f7H
	DB	09eH
	DB	0f7H
	DB	07eH
	DB	0f7H
	DB	09eH
	DB	0f7H
	DB	09eH
	DB	0f7H
	DB	07eH
	DB	0f7H
	DB	09eH
	DB	0f7H
	DB	09eH
	DB	0f7H
	DB	07eH
	DB	0f7H
	DB	07eH
	DB	0f7H
	DB	09eH
	DB	0f7H
	DB	07eH
	DB	0f7H
	DB	07eH
	DB	0f7H
	DB	09dH
	DB	0efH
	DB	07eH
	DB	0f7H
	DB	09eH
	DB	0f7H
	DB	07eH
	DB	0f7H
	DB	09eH
	DB	0f7H
	DB	07eH
	DB	0f7H
	DB	07eH
	DB	0f7H
	DB	09eH
	DB	0f7H
	DB	07eH
	DB	0f7H
	DB	09eH
	DB	0f7H
	DB	09eH
	DB	0f7H
	DB	07eH
	DB	0f7H
	DB	09eH
	DB	0f7H
	DB	09eH
	DB	0f7H
	DB	07dH
	DB	0efH
	DB	09eH
	DB	0f7H
	DB	07eH
	DB	0f7H
	DB	07eH
	DB	0f7H
	DB	09eH
	DB	0f7H
	DB	07eH
	DB	0f7H
	DB	09eH
	DB	0f7H
	DB	09eH
	DB	0f7H
	DB	07eH
	DB	0f7H
	DB	09eH
	DB	0f7H
	DB	07eH
	DB	0f7H
	DB	07dH
	DB	0efH
	DB	09eH
	DB	0f7H
	DB	09eH
	DB	0f7H
	DB	07eH
	DB	0f7H
	DB	09eH
	DB	0f7H
	DB	07eH
	DB	0f7H
	DB	07eH
	DB	0f7H
	DB	09eH
	DB	0f7H
	DB	07eH
	DB	0f7H
	DB	07eH
	DB	0f7H
	DB	09eH
	DB	0f7H
	DB	09dH
	DB	0efH
	DB	09eH
	DB	0f7H
	DB	07eH
	DB	0f7H
	DB	09eH
	DB	0f7H
	DB	07eH
	DB	0f7H
	DB	07eH
	DB	0f7H
	DB	09eH
	DB	0f7H
	DB	07eH
	DB	0f7H
	DB	07eH
	DB	0f7H
	DB	09eH
	DB	0f7H
	DB	09eH
	DB	0f7H
	DB	07eH
	DB	0f7H
	DB	09dH
	DB	0efH
	DB	09eH
	DB	0f7H
	DB	07eH
	DB	0f7H
	DB	09eH
	DB	0f7H
	DB	07eH
	DB	0f7H
	DB	07eH
	DB	0f7H
	DB	09eH
	DB	0f7H
	DB	07eH
	DB	0f7H
	DB	09eH
	DB	0f7H
	DB	09eH
	DB	0f7H
	DB	07eH
	DB	0f7H
	DB	09eH
	DB	0f7H
	DB	07dH
	DB	0efH
	DB	07eH
	DB	0f7H
	DB	09eH
	DB	0f7H
	DB	09eH
	DB	0f7H
	DB	07eH
	DB	0f7H
	DB	09eH
	DB	0f7H
	DB	07eH
	DB	0f7H
	DB	07eH
	DB	0f7H
	DB	09eH
	DB	0f7H
	DB	07eH
	DB	0f7H
	DB	07eH
	DB	0f7H
	DB	09eH
	DB	0f7H
	DB	09dH
	DB	0efH
	DB	09eH
	DB	0f7H
	DB	07eH
	DB	0f7H
	DB	09eH
	DB	0f7H
	DB	07eH
	DB	0f7H
	DB	07eH
	DB	0f7H
	DB	09eH
	DB	0f7H
	DB	07eH
	DB	0f7H
	DB	07eH
	DB	0f7H
	DB	09eH
	DB	0f7H
	DB	09eH
	DB	0f7H
	DB	07eH
	DB	0f7H
	DB	09dH
	DB	0efH
	DB	09eH
	DB	0f7H
	DB	07eH
	DB	0f7H
	DB	09eH
	DB	0f7H
	DB	07eH
	DB	0f7H
	DB	07eH
	DB	0f7H
	DB	09eH
	DB	0f7H
	DB	07eH
	DB	0f7H
	DB	09eH
	DB	0f7H
	DB	09eH
	DB	0f7H
	DB	07eH
	DB	0f7H
	DB	09eH
	DB	0f7H
	DB	07dH
	DB	0efH
	DB	07eH
	DB	0f7H
	DB	09eH
	DB	0f7H
	DB	09eH
	DB	0f7H
	DB	07eH
	DB	0f7H
	DB	09eH
	DB	0f7H
	DB	07eH
	DB	0f7H
	DB	07eH
	DB	0f7H
	DB	09eH
	DB	0f7H
	DB	07eH
	DB	0f7H
	DB	07eH
	DB	0f7H
	DB	09eH
	DB	0f7H
	DB	09dH
	DB	0efH
	DB	09eH
	DB	0f7H
	DB	07eH
	DB	0f7H
	DB	09eH
	DB	0f7H
	DB	07eH
	DB	0f7H
	DB	07eH
	DB	0f7H
	DB	09eH
	DB	0f7H
	DB	07eH
	DB	0f7H
	DB	07eH
	DB	0f7H
	DB	09eH
	DB	0f7H
	DB	09eH
	DB	0f7H
	DB	07eH
	DB	0f7H
	DB	09dH
	DB	0efH
	DB	09eH
	DB	0f7H
	DB	07eH
	DB	0f7H
	DB	09eH
	DB	0f7H
	DB	07eH
	DB	0f7H
	DB	07eH
	DB	0f7H
	DB	09eH
	DB	0f7H
	DB	07eH
	DB	0f7H
	DB	09eH
	DB	0f7H
	DB	09eH
	DB	0f7H
	DB	07eH
	DB	0f7H
	DB	09eH
	DB	0f7H
	DB	07dH
	DB	0efH
	DB	07eH
	DB	0f7H
	DB	09eH
	DB	0f7H
	DB	09eH
	DB	0f7H
	DB	07eH
	DB	0f7H
	DB	09eH
	DB	0f7H
	DB	07eH
	DB	0f7H
	DB	07eH
	DB	0f7H
	DB	09eH
	DB	0f7H
	DB	07eH
	DB	0f7H
	DB	07eH
	DB	0f7H
	DB	09eH
	DB	0f7H
	DB	09dH
	DB	0efH
	DB	07eH
	DB	0f7H
	DB	09eH
	DB	0f7H
	DB	07eH
	DB	0f7H
	DB	07eH
	DB	0f7H
	DB	09eH
	DB	0f7H
	DB	07eH
	DB	0f7H
	DB	07eH
	DB	0f7H
	DB	09dH
	DB	0efH
	DB	07eH
	DB	0f7H
	DB	09dH
	DB	0efH
	DB	07eH
	DB	0f7H
	DB	09eH
	DB	0f7H
	DB	07dH
	DB	0efH
	DB	09eH
	DB	0f7H
	DB	07eH
	DB	0f7H
	DB	07eH
	DB	0f7H
	DB	09eH
	DB	0f7H
	DB	07eH
	DB	0f7H
	DB	09eH
	DB	0f7H
	DB	07eH
	DB	0f7H
	DB	09dH
	DB	0efH
	DB	07eH
	DB	0f7H
	DB	09eH
	DB	0f7H
	DB	09eH
	DB	0f7H
	DB	07eH
	DB	0f7H
	DB	09eH
	DB	0f7H
	DB	07eH
	DB	0f7H
	DB	07eH
	DB	0f7H
	DB	09eH
	DB	0f7H
	DB	07eH
	DB	0f7H
	DB	09eH
	DB	0f7H
	DB	07eH
	DB	0f7H
	DB	09dH
	DB	0efH
	DB	09eH
	DB	0f7H
	DB	07eH
	DB	0f7H
	DB	09eH
	DB	0f7H
	DB	09eH
	DB	0f7H
	DB	07eH
	DB	0f7H
	DB	09eH
	DB	0f7H
	DB	07eH
	DB	0f7H
	DB	07eH
	DB	0f7H
	DB	09eH
	DB	0f7H
	DB	07eH
	DB	0f7H
	DB	09eH
	DB	0f7H
	DB	09dH
	DB	0efH
	DB	07eH
	DB	0f7H
	DB	09eH
	DB	0f7H
	DB	07dH
	DB	0efH
	DB	07eH
	DB	0f7H
	DB	09eH
	DB	0f7H
	DB	09eH
	DB	0f7H
	DB	07eH
	DB	0f7H
	DB	09eH
	DB	0f7H
	DB	07eH
	DB	0f7H
	DB	07eH
	DB	0f7H
	DB	09eH
	DB	0f7H
	DB	07eH
	DB	0f7H
	DB	07eH
	DB	0f7H
	DB	09dH
	DB	0efH
	DB	09eH
	DB	0f7H
	DB	09eH
	DB	0f7H
	DB	07eH
	DB	0f7H
	DB	09eH
	DB	0f7H
	DB	07eH
	DB	0f7H
	DB	07eH
	DB	0f7H
	DB	09eH
	DB	0f7H
	DB	07eH
	DB	0f7H
	DB	07eH
	DB	0f7H
	DB	09eH
	DB	0f7H
	DB	09dH
	DB	0efH
	DB	07eH
	DB	0f7H
	DB	09eH
	DB	0f7H
	DB	09eH
	DB	0f7H
	DB	07eH
	DB	0f7H
	DB	09eH
	DB	0f7H
	DB	07eH
	DB	0f7H
	DB	07eH
	DB	0f7H
	DB	09eH
	DB	0f7H
	DB	07eH
	DB	0f7H
	DB	09eH
	DB	0f7H
	DB	09dH
	DB	0efH
	DB	07eH
	DB	0f7H
	DB	09eH
	DB	0f7H
	DB	07eH
	DB	0f7H
	DB	07eH
	DB	0f7H
	DB	09eH
	DB	0f7H
	DB	09eH
	DB	0f7H
	DB	07eH
	DB	0f7H
	DB	09eH
	DB	0f7H
	DB	07eH
	DB	0f7H
	DB	07eH
	DB	0f7H
	DB	09eH
	DB	0f7H
	DB	07dH
	DB	0efH
	DB	07eH
	DB	0f7H
	DB	09eH
	DB	0f7H
	DB	09eH
	DB	0f7H
	DB	09eH
	DB	0f7H
	DB	07eH
	DB	0f7H
	DB	09eH
	DB	0f7H
	DB	07eH
	DB	0f7H
	DB	07eH
	DB	0f7H
	DB	09eH
	DB	0f7H
	DB	07eH
	DB	0f7H
	DB	07eH
	DB	0f7H
	DB	09dH
	DB	0efH
	DB	09eH
	DB	0f7H
	DB	07eH
	DB	0f7H
	DB	09eH
	DB	0f7H
	DB	09eH
	DB	0f7H
	DB	07eH
	DB	0f7H
	DB	09eH
	DB	0f7H
	DB	07eH
	DB	0f7H
	DB	07eH
	DB	0f7H
	DB	09eH
	DB	0f7H
	DB	07eH
	DB	0f7H
	DB	09eH
	DB	0f7H
	DB	09dH
	DB	0efH
	DB	07eH
	DB	0f7H
	DB	09eH
	DB	0f7H
	DB	07eH
	DB	0f7H
	DB	07eH
	DB	0f7H
	DB	09eH
	DB	0f7H
	DB	09eH
	DB	0f7H
	DB	07eH
	DB	0f7H
	DB	09eH
	DB	0f7H
	DB	07eH
	DB	0f7H
	DB	07eH
	DB	0f7H
	DB	09eH
	DB	0f7H
	DB	07dH
	DB	0efH
	DB	07eH
	DB	0f7H
	DB	09eH
	DB	0f7H
	DB	09eH
	DB	0f7H
	DB	09eH
	DB	0f7H
	DB	07eH
	DB	0f7H
	DB	09eH
	DB	0f7H
	DB	07eH
	DB	0f7H
	DB	07eH
	DB	0f7H
	DB	09eH
	DB	0f7H
	DB	07eH
	DB	0f7H
	DB	07eH
	DB	0f7H
	DB	09dH
	DB	0efH
	DB	09eH
	DB	0f7H
	DB	07eH
	DB	0f7H
	DB	09eH
	DB	0f7H
	DB	09eH
	DB	0f7H
	DB	07eH
	DB	0f7H
	DB	09eH
	DB	0f7H
	DB	07eH
	DB	0f7H
	DB	07eH
	DB	0f7H
	DB	09eH
	DB	0f7H
	DB	07eH
	DB	0f7H
	DB	09eH
	DB	0f7H
	DB	09dH
	DB	0efH
	DB	07eH
	DB	0f7H
	DB	09eH
	DB	0f7H
	DB	07eH
	DB	0f7H
	DB	07eH
	DB	0f7H
	DB	09eH
	DB	0f7H
	DB	09eH
	DB	0f7H
	DB	07eH
	DB	0f7H
	DB	09eH
	DB	0f7H
	DB	07eH
	DB	0f7H
	DB	07eH
	DB	0f7H
	DB	09eH
	DB	0f7H
	DB	07dH
	DB	0efH
	DB	07eH
	DB	0f7H
	DB	09eH
	DB	0f7H
	DB	09eH
	DB	0f7H
	DB	09eH
	DB	0f7H
	DB	07eH
	DB	0f7H
	DB	09eH
	DB	0f7H
	DB	07eH
	DB	0f7H
	DB	07eH
	DB	0f7H
	DB	09eH
	DB	0f7H
	DB	07eH
	DB	0f7H
	DB	07eH
	DB	0f7H
	DB	09dH
	DB	0efH
	DB	09eH
	DB	0f7H
	DB	07eH
	DB	0f7H
	DB	09eH
	DB	0f7H
	DB	09eH
	DB	0f7H
	DB	07eH
	DB	0f7H
	DB	09eH
	DB	0f7H
	DB	07eH
	DB	0f7H
	DB	07eH
	DB	0f7H
	DB	09eH
	DB	0f7H
	DB	07eH
	DB	0f7H
	DB	09eH
	DB	0f7H
	DB	09dH
	DB	0efH
	DB	07eH
	DB	0f7H
	DB	09eH
	DB	0f7H
	DB	07eH
	DB	0f7H
	DB	07eH
	DB	0f7H
	DB	09eH
	DB	0f7H
	DB	09eH
	DB	0f7H
	DB	07eH
	DB	0f7H
	DB	09eH
	DB	0f7H
	DB	07eH
	DB	0f7H
	DB	07eH
	DB	0f7H
	DB	09eH
	DB	0f7H
	DB	07dH
	DB	0efH
	DB	07eH
	DB	0f7H
	DB	09eH
	DB	0f7H
	DB	09eH
	DB	0f7H
	DB	09eH
	DB	0f7H
	DB	07eH
	DB	0f7H
	DB	09eH
	DB	0f7H
	DB	07eH
	DB	0f7H
	DB	07eH
	DB	0f7H
	DB	09eH
	DB	0f7H
	DB	07eH
	DB	0f7H
	DB	07eH
	DB	0f7H
	DB	09dH
	DB	0efH
	DB	09eH
	DB	0f7H
	DB	07eH
	DB	0f7H
	DB	09eH
	DB	0f7H
	DB	09eH
	DB	0f7H
	DB	07eH
	DB	0f7H
	DB	09eH
	DB	0f7H
	DB	07eH
	DB	0f7H
	DB	07eH
	DB	0f7H
	DB	09eH
	DB	0f7H
	DB	07eH
	DB	0f7H
	DB	09eH
	DB	0f7H
	DB	09dH
	DB	0efH
	DB	07eH
	DB	0f7H
	DB	09eH
	DB	0f7H
	DB	07eH
	DB	0f7H
	DB	07eH
	DB	0f7H
	DB	09eH
	DB	0f7H
	DB	09eH
	DB	0f7H
	DB	07eH
	DB	0f7H
	DB	09eH
	DB	0f7H
	DB	07eH
	DB	0f7H
	DB	07eH
	DB	0f7H
	DB	09eH
	DB	0f7H
	DB	07dH
	DB	0efH
	DB	07eH
	DB	0f7H
	DB	09eH
	DB	0f7H
	DB	09eH
	DB	0f7H
	DB	09eH
	DB	0f7H
	DB	07eH
	DB	0f7H
	DB	09eH
	DB	0f7H
	DB	07eH
	DB	0f7H
	DB	07eH
	DB	0f7H
	DB	09eH
	DB	0f7H
	DB	07eH
	DB	0f7H
	DB	07eH
	DB	0f7H
	DB	09dH
	DB	0efH
	DB	09eH
	DB	0f7H
	DB	07eH
	DB	0f7H
	DB	09eH
	DB	0f7H
	DB	09eH
	DB	0f7H
	DB	07eH
	DB	0f7H
	DB	09eH
	DB	0f7H
	DB	07eH
	DB	0f7H
	DB	07eH
	DB	0f7H
	DB	09eH
	DB	0f7H
	DB	07eH
	DB	0f7H
	DB	09eH
	DB	0f7H
	DB	09dH
	DB	0efH
	DB	07eH
	DB	0f7H
	DB	09eH
	DB	0f7H
	DB	07eH
	DB	0f7H
	DB	07eH
	DB	0f7H
	DB	09eH
	DB	0f7H
	DB	09eH
	DB	0f7H
	DB	07eH
	DB	0f7H
	DB	09eH
	DB	0f7H
	DB	07eH
	DB	0f7H
	DB	07eH
	DB	0f7H
	DB	09eH
	DB	0f7H
	DB	07dH
	DB	0efH
	DB	07eH
	DB	0f7H
	DB	09eH
	DB	0f7H
	DB	09eH
	DB	0f7H
	DB	09eH
	DB	0f7H
	DB	07eH
	DB	0f7H
	DB	09eH
	DB	0f7H
	DB	07eH
	DB	0f7H
	DB	07eH
	DB	0f7H
	DB	09eH
	DB	0f7H
	DB	07eH
	DB	0f7H
	DB	07eH
	DB	0f7H
	DB	09dH
	DB	0efH
	DB	09eH
	DB	0f7H
	DB	07eH
	DB	0f7H
	DB	09eH
	DB	0f7H
	DB	09eH
	DB	0f7H
	DB	07eH
	DB	0f7H
	DB	09eH
	DB	0f7H
	DB	07eH
	DB	0f7H
	DB	07eH
	DB	0f7H
	DB	09eH
	DB	0f7H
	DB	07eH
	DB	0f7H
	DB	09eH
	DB	0f7H
	DB	09dH
	DB	0efH
	DB	07eH
	DB	0f7H
	DB	09eH
	DB	0f7H
	DB	07eH
	DB	0f7H
	DB	07eH
	DB	0f7H
	DB	09eH
	DB	0f7H
	DB	09eH
	DB	0f7H
	DB	07eH
	DB	0f7H
	DB	09eH
	DB	0f7H
	DB	07eH
	DB	0f7H
	DB	07eH
	DB	0f7H
	DB	09eH
	DB	0f7H
	DB	07dH
	DB	0efH
	DB	07eH
	DB	0f7H
	DB	09eH
	DB	0f7H
	DB	07eH
	DB	0f7H
	DB	07eH
	DB	0f7H
	DB	07dH
	DB	0efH
	DB	09eH
	DB	0f7H
	DB	09dH
	DB	0efH
	DB	07eH
	DB	0f7H
	DB	09eH
	DB	0f7H
	DB	09eH
	DB	0f7H
	DB	07dH
	DB	0efH
	DB	07eH
	DB	0f7H
	DB	09eH
	DB	0f7H
	DB	07dH
	DB	0efH
	DB	07dH
	DB	0efH
	DB	07dH
	DB	0efH
	DB	09eH
	DB	0f7H
	DB	07dH
	DB	0efH
	DB	07dH
	DB	0efH
	DB	07dH
	DB	0efH
	DB	07dH
	DB	0efH
	DB	07dH
	DB	0efH
	DB	07dH
	DB	0efH
	DB	07dH
	DB	0efH
	DB	07eH
	DB	0f7H
	DB	09eH
	DB	0f7H
	DB	07eH
	DB	0f7H
	DB	07dH
	DB	0efH
	DB	07dH
	DB	0efH
	DB	07dH
	DB	0efH
	DB	07dH
	DB	0efH
	DB	07dH
	DB	0efH
	DB	09eH
	DB	0f7H
	DB	07dH
	DB	0efH
	DB	07dH
	DB	0efH
	DB	07dH
	DB	0efH
	DB	07dH
	DB	0efH
	DB	07dH
	DB	0efH
	DB	07eH
	DB	0f7H
	DB	07dH
	DB	0efH
	DB	07eH
	DB	0f7H
	DB	09eH
	DB	0f7H
	DB	07dH
	DB	0efH
	DB	07dH
	DB	0efH
	DB	09eH
	DB	0f7H
	DB	07dH
	DB	0efH
	DB	07dH
	DB	0efH
	DB	07eH
	DB	0f7H
	DB	07dH
	DB	0efH
	DB	07eH
	DB	0f7H
	DB	07dH
	DB	0efH
	DB	09eH
	DB	0f7H
	DB	07dH
	DB	0efH
	DB	07dH
	DB	0efH
	DB	09eH
	DB	0f7H
	DB	09eH
	DB	0f7H
	DB	07dH
	DB	0efH
	DB	07dH
	DB	0efH
	DB	07dH
	DB	0efH
	DB	07dH
	DB	0efH
	DB	09eH
	DB	0f7H
	DB	07dH
	DB	0efH
	DB	07eH
	DB	0f7H
	DB	09eH
	DB	0f7H
	DB	07dH
	DB	0efH
	DB	09eH
	DB	0f7H
	DB	09dH
	DB	0efH
	DB	07dH
	DB	0efH
	DB	07dH
	DB	0efH
	DB	07dH
	DB	0efH
	DB	09eH
	DB	0f7H
	DB	07dH
	DB	0efH
	DB	07dH
	DB	0efH
	DB	07eH
	DB	0f7H
	DB	07eH
	DB	0f7H
	DB	09dH
	DB	0efH
	DB	07dH
	DB	0efH
	DB	07dH
	DB	0efH
	DB	07dH
	DB	0efH
	DB	09eH
	DB	0f7H
	DB	07dH
	DB	0efH
	DB	07dH
	DB	0efH
	DB	07dH
	DB	0efH
	DB	07dH
	DB	0efH
	DB	09eH
	DB	0f7H
	DB	07dH
	DB	0efH
	DB	07eH
	DB	0f7H
	DB	09eH
	DB	0f7H
	DB	07dH
	DB	0efH
	DB	07dH
	DB	0efH
	DB	07dH
	DB	0efH
	DB	07dH
	DB	0efH
	DB	09eH
	DB	0f7H
	DB	07dH
	DB	0efH
	DB	07dH
	DB	0efH
	DB	07dH
	DB	0efH
	DB	07eH
	DB	0f7H
	DB	09eH
	DB	0f7H
	DB	07eH
	DB	0f7H
	DB	07dH
	DB	0efH
	DB	07dH
	DB	0efH
	DB	09eH
	DB	0f7H
	DB	07dH
	DB	0efH
	DB	09eH
	DB	0f7H
	DB	07dH
	DB	0efH
	DB	07dH
	DB	0efH
	DB	09eH
	DB	0f7H
	DB	07dH
	DB	0efH
	DB	07dH
	DB	0efH
	DB	07eH
	DB	0f7H
	DB	07dH
	DB	0efH
	DB	09eH
	DB	0f7H
	DB	07dH
	DB	0efH
	DB	07dH
	DB	0efH
	DB	09eH
	DB	0f7H
	DB	07dH
	DB	0efH
	DB	07dH
	DB	0efH
	DB	07dH
	DB	0efH
	DB	07dH
	DB	0efH
	DB	07dH
	DB	0efH
	DB	07eH
	DB	0f7H
	DB	09eH
	DB	0f7H
	DB	09eH
	DB	0f7H
	DB	07dH
	DB	0efH
	DB	07dH
	DB	0efH
	DB	07dH
	DB	0efH
	DB	07dH
	DB	0efH
	DB	09eH
	DB	0f7H
	DB	07dH
	DB	0efH
	DB	07dH
	DB	0efH
	DB	09eH
	DB	0f7H
	DB	07dH
	DB	0efH
	DB	07dH
	DB	0efH
	DB	09eH
	DB	0f7H
	DB	07eH
	DB	0f7H
	DB	07dH
	DB	0efH
	DB	07dH
	DB	0efH
	DB	07dH
	DB	0efH
	DB	07eH
	DB	0f7H
	DB	07dH
	DB	0efH
	DB	07dH
	DB	0efH
	DB	07dH
	DB	0efH
	DB	07dH
	DB	0efH
	DB	07dH
	DB	0efH
	DB	07eH
	DB	0f7H
	DB	07eH
	DB	0f7H
	DB	07dH
	DB	0efH
	DB	07dH
	DB	0efH
	DB	07eH
	DB	0f7H
	DB	07dH
	DB	0efH
	DB	07dH
	DB	0efH
	DB	07dH
	DB	0efH
	DB	07dH
	DB	0efH
	DB	07dH
	DB	0efH
	DB	07eH
	DB	0f7H
	DB	07dH
	DB	0efH
	DB	07dH
	DB	0efH
	DB	07eH
	DB	0f7H
	DB	07dH
	DB	0efH
	DB	07dH
	DB	0efH
	DB	09eH
	DB	0f7H
	DB	07dH
	DB	0efH
	DB	07eH
	DB	0f7H
	DB	07dH
	DB	0efH
	DB	07dH
	DB	0efH
	DB	09eH
	DB	0f7H
	DB	07dH
	DB	0efH
	DB	07dH
	DB	0efH
	DB	09eH
	DB	0f7H
	DB	07eH
	DB	0f7H
	DB	07dH
	DB	0efH
	DB	07dH
	DB	0efH
	DB	07eH
	DB	0f7H
	DB	07dH
	DB	0efH
	DB	07dH
	DB	0efH
	DB	07dH
	DB	0efH
	DB	07eH
	DB	0f7H
	DB	07dH
	DB	0efH
	DB	07eH
	DB	0f7H
	DB	07eH
	DB	0f7H
	DB	07dH
	DB	0efH
	DB	07dH
	DB	0efH
	DB	07eH
	DB	0f7H
	DB	09eH
	DB	0f7H
	DB	07dH
	DB	0efH
	DB	07dH
	DB	0efH
	DB	07eH
	DB	0f7H
	DB	09eH
	DB	0f7H
	DB	07dH
	DB	0efH
	DB	07dH
	DB	0efH
	DB	09eH
	DB	0f7H
	DB	07eH
	DB	0f7H
	DB	07dH
	DB	0efH
	DB	07eH
	DB	0f7H
	DB	07dH
	DB	0efH
	DB	07dH
	DB	0efH
	DB	09eH
	DB	0f7H
	DB	07dH
	DB	0efH
	DB	07dH
	DB	0efH
	DB	07dH
	DB	0efH
	DB	07dH
	DB	0efH
	DB	07eH
	DB	0f7H
	DB	07eH
	DB	0f7H
	DB	07dH
	DB	0efH
	DB	07eH
	DB	0f7H
	DB	07dH
	DB	0efH
	DB	07dH
	DB	0efH
	DB	07dH
	DB	0efH
	DB	07dH
	DB	0efH
	DB	07dH
	DB	0efH
	DB	09eH
	DB	0f7H
	DB	07dH
	DB	0efH
	DB	07dH
	DB	0efH
	DB	07eH
	DB	0f7H
	DB	07eH
	DB	0f7H
	DB	07dH
	DB	0efH
	DB	07eH
	DB	0f7H
	DB	07eH
	DB	0f7H
	DB	07dH
	DB	0efH
	DB	07eH
	DB	0f7H
	DB	07dH
	DB	0efH
	DB	07eH
	DB	0f7H
	DB	09dH
	DB	0efH
	DB	07dH
	DB	0efH
	DB	09eH
	DB	0f7H
	DB	07dH
	DB	0efH
	DB	09dH
	DB	0efH
	DB	07eH
	DB	0f7H
	DB	07dH
	DB	0efH
	DB	09eH
	DB	0f7H
	DB	07eH
	DB	0f7H
	DB	07dH
	DB	0efH
	DB	09eH
	DB	0f7H
	DB	09dH
	DB	0efH
	DB	07dH
	DB	0efH
	DB	07eH
	DB	0f7H
	DB	07dH
	DB	0efH
	DB	09eH
	DB	0f7H
	DB	07dH
	DB	0efH
	DB	07eH
	DB	0f7H
	DB	07dH
	DB	0efH
	DB	07dH
	DB	0efH
	DB	07eH
	DB	0f7H
	DB	07dH
	DB	0efH
	DB	07dH
	DB	0efH
	DB	09eH
	DB	0f7H
	DB	07dH
	DB	0efH
	DB	07dH
	DB	0efH
	DB	09eH
	DB	0f7H
	DB	07eH
	DB	0f7H
	DB	07dH
	DB	0efH
	DB	07eH
	DB	0f7H
	DB	07dH
	DB	0efH
	DB	07dH
	DB	0efH
	DB	09eH
	DB	0f7H
	DB	07eH
	DB	0f7H
	DB	07dH
	DB	0efH
	DB	07dH
	DB	0efH
	DB	07dH
	DB	0efH
	DB	07dH
	DB	0efH
	DB	09eH
	DB	0f7H
	DB	07dH
	DB	0efH
	DB	09eH
	DB	0f7H
	DB	07eH
	DB	0f7H
	DB	07dH
	DB	0efH
	DB	07dH
	DB	0efH
	DB	07dH
	DB	0efH
	DB	07dH
	DB	0efH
	DB	07dH
	DB	0efH
	DB	07dH
	DB	0efH
	DB	07dH
	DB	0efH
	DB	07eH
	DB	0f7H
	DB	07dH
	DB	0efH
	DB	07dH
	DB	0efH
	DB	07eH
	DB	0f7H
	DB	07dH
	DB	0efH
	DB	07dH
	DB	0efH
	DB	07eH
	DB	0f7H
	DB	07dH
	DB	0efH
	DB	09eH
	DB	0f7H
	DB	07dH
	DB	0efH
	DB	07dH
	DB	0efH
	DB	07dH
	DB	0efH
	DB	07dH
	DB	0efH
	DB	07dH
	DB	0efH
	DB	07eH
	DB	0f7H
	DB	07eH
	DB	0f7H
	DB	07dH
	DB	0efH
	DB	07dH
	DB	0efH
	DB	09eH
	DB	0f7H
	DB	07dH
	DB	0efH
	DB	07dH
	DB	0efH
	DB	07dH
	DB	0efH
	DB	07eH
	DB	0f7H
	DB	07dH
	DB	0efH
	DB	09eH
	DB	0f7H
	DB	09dH
	DB	0efH
	DB	07dH
	DB	0efH
	DB	09eH
	DB	0f7H
	DB	07eH
	DB	0f7H
	DB	07dH
	DB	0efH
	DB	07dH
	DB	0efH
	DB	07eH
	DB	0f7H
	DB	09eH
	DB	0f7H
	DB	07dH
	DB	0efH
	DB	07dH
	DB	0efH
	DB	09eH
	DB	0f7H
	DB	07dH
	DB	0efH
	DB	07dH
	DB	0efH
	DB	07eH
	DB	0f7H
	DB	07dH
	DB	0efH
	DB	07eH
	DB	0f7H
	DB	07dH
	DB	0efH
	DB	09eH
	DB	0f7H
	DB	07dH
	DB	0efH
	DB	07dH
	DB	0efH
	DB	07dH
	DB	0efH
	DB	07dH
	DB	0efH
	DB	07dH
	DB	0efH
	DB	07eH
	DB	0f7H
	DB	07dH
	DB	0efH
	DB	07dH
	DB	0efH
	DB	07eH
	DB	0f7H
	DB	07dH
	DB	0efH
	DB	07dH
	DB	0efH
	DB	07eH
	DB	0f7H
	DB	07dH
	DB	0efH
	DB	07dH
	DB	0efH
	DB	07dH
	DB	0efH
	DB	07dH
	DB	0efH
	DB	09eH
	DB	0f7H
	DB	07dH
	DB	0efH
	DB	07dH
	DB	0efH
	DB	09eH
	DB	0f7H
	DB	09eH
	DB	0f7H
	DB	07dH
	DB	0efH
	DB	07dH
	DB	0efH
	DB	07eH
	DB	0f7H
	DB	07dH
	DB	0efH
	DB	09eH
	DB	0f7H
	DB	07dH
	DB	0efH
	DB	07dH
	DB	0efH
	DB	09eH
	DB	0f7H
	DB	07dH
	DB	0efH
	DB	07dH
	DB	0efH
	DB	07eH
	DB	0f7H
	DB	09eH
	DB	0f7H
	DB	07dH
	DB	0efH
	DB	07dH
	DB	0efH
	DB	07eH
	DB	0f7H
	DB	07dH
	DB	0efH
	DB	07dH
	DB	0efH
	DB	07dH
	DB	0efH
	DB	09eH
	DB	0f7H
	DB	07dH
	DB	0efH
	DB	07dH
	DB	0efH
	DB	09eH
	DB	0f7H
	DB	07eH
	DB	0f7H
	DB	07dH
	DB	0efH
	DB	07eH
	DB	0f7H
	DB	07dH
	DB	0efH
	DB	07dH
	DB	0efH
	DB	07dH
	DB	0efH
	DB	09eH
	DB	0f7H
	DB	07dH
	DB	0efH
	DB	07dH
	DB	0efH
	DB	09eH
	DB	0f7H
	DB	07dH
	DB	0efH
	DB	07dH
	DB	0efH
	DB	07eH
	DB	0f7H
	DB	07dH
	DB	0efH
	DB	07eH
	DB	0f7H
	DB	07dH
	DB	0efH
	DB	07dH
	DB	0efH
	DB	09eH
	DB	0f7H
	DB	07dH
	DB	0efH
	DB	07dH
	DB	0efH
	DB	07dH
	DB	0efH
	DB	09eH
	DB	0f7H
	DB	09dH
	DB	0efH
	DB	07dH
	DB	0efH
	DB	07eH
	DB	0f7H
	DB	09eH
	DB	0f7H
	DB	07dH
	DB	0efH
	DB	07dH
	DB	0efH
	DB	07eH
	DB	0f7H
	DB	07dH
	DB	0efH
	DB	07dH
	DB	0efH
	DB	09eH
	DB	0f7H
	DB	09dH
	DB	0efH
	DB	07dH
	DB	0efH
	DB	07dH
	DB	0efH
	DB	07dH
	DB	0efH
	DB	07eH
	DB	0f7H
	DB	07dH
	DB	0efH
	DB	09eH
	DB	0f7H
	DB	07dH
	DB	0efH
	DB	07eH
	DB	0f7H
	DB	07dH
	DB	0efH
	DB	09eH
	DB	0f7H
	DB	07dH
	DB	0efH
	DB	07dH
	DB	0efH
	DB	07dH
	DB	0efH
	DB	09eH
	DB	0f7H
	DB	07dH
	DB	0efH
	DB	07dH
	DB	0efH
	DB	09eH
	DB	0f7H
	DB	07eH
	DB	0f7H
	DB	07dH
	DB	0efH
	DB	07dH
	DB	0efH
	DB	07dH
	DB	0efH
	DB	07dH
	DB	0efH
	DB	07eH
	DB	0f7H
	DB	07dH
	DB	0efH
	DB	09dH
	DB	0efH
	DB	07dH
	DB	0efH
	DB	07dH
	DB	0efH
	DB	07eH
	DB	0f7H
	DB	07dH
	DB	0efH
	DB	07eH
	DB	0f7H
	DB	09eH
	DB	0f7H
	DB	07dH
	DB	0efH
	DB	07dH
	DB	0efH
	DB	07dH
	DB	0efH
	DB	07dH
	DB	0efH
	DB	09eH
	DB	0f7H
	DB	07dH
	DB	0efH
	DB	07dH
	DB	0efH
	DB	09eH
	DB	0f7H
	DB	07eH
	DB	0f7H
	DB	07eH
	DB	0f7H
	DB	07dH
	DB	0efH
	DB	07dH
	DB	0efH
	DB	09eH
	DB	0f7H
	DB	09dH
	DB	0efH
	DB	07eH
	DB	0f7H
	DB	07dH
	DB	0efH
	DB	07dH
	DB	0efH
	DB	07dH
	DB	0efH
	DB	07dH
	DB	0efH
	DB	07dH
	DB	0efH
	DB	07eH
	DB	0f7H
	DB	07dH
	DB	0efH
	DB	07eH
	DB	0f7H
	DB	09eH
	DB	0f7H
	DB	07dH
	DB	0efH
	DB	07dH
	DB	0efH
	DB	07dH
	DB	0efH
	DB	07dH
	DB	0efH
	DB	09eH
	DB	0f7H
	DB	09dH
	DB	0efH
	DB	07dH
	DB	0efH
	DB	07dH
	DB	0efH
	DB	07eH
	DB	0f7H
	DB	07eH
	DB	0f7H
	DB	07dH
	DB	0efH
	DB	09eH
	DB	0f7H
	DB	07dH
	DB	0efH
	DB	07dH
	DB	0efH
	DB	07dH
	DB	0efH
	DB	07dH
	DB	0efH
	DB	07dH
	DB	0efH
	DB	07dH
	DB	0efH
	DB	09eH
	DB	0f7H
	DB	07dH
	DB	0efH
	DB	07dH
	DB	0efH
	DB	07eH
	DB	0f7H
	DB	07dH
	DB	0efH
	DB	07dH
	DB	0efH
	DB	07eH
	DB	0f7H
	DB	07dH
	DB	0efH
	DB	07dH
	DB	0efH
	DB	07dH
	DB	0efH
	DB	07dH
	DB	0efH
	DB	07dH
	DB	0efH
	DB	07dH
	DB	0efH
	DB	07dH
	DB	0efH
	DB	07eH
	DB	0f7H
	DB	09eH
	DB	0f7H
	DB	07dH
	DB	0efH
	DB	09eH
	DB	0f7H
	DB	09eH
	DB	0f7H
	DB	07dH
	DB	0efH
	DB	07dH
	DB	0efH
	DB	07eH
	DB	0f7H
	DB	07eH
	DB	0f7H
	DB	07dH
	DB	0efH
	DB	07dH
	DB	0efH
	DB	09eH
	DB	0f7H
	DB	07dH
	DB	0efH
	DB	07eH
	DB	0f7H
	DB	07dH
	DB	0efH
	DB	09eH
	DB	0f7H
	DB	07eH
	DB	0f7H
	DB	07eH
	DB	0f7H
	DB	07eH
	DB	0f7H
	DB	07dH
	DB	0efH
	DB	07eH
	DB	0f7H
	DB	07eH
	DB	0f7H
	DB	07eH
	DB	0f7H
	DB	07eH
	DB	0f7H
	DB	09eH
	DB	0f7H
	DB	07eH
	DB	0f7H
	DB	07dH
	DB	0efH
	DB	09dH
	DB	0efH
	DB	07eH
	DB	0f7H
	DB	07eH
	DB	0f7H
	DB	07eH
	DB	0f7H
	DB	09eH
	DB	0f7H
	DB	07eH
	DB	0f7H
	DB	07eH
	DB	0f7H
	DB	07eH
	DB	0f7H
	DB	07dH
	DB	0efH
	DB	07eH
	DB	0f7H
	DB	07eH
	DB	0f7H
	DB	07eH
	DB	0f7H
	DB	07eH
	DB	0f7H
	DB	07eH
	DB	0f7H
	DB	07dH
	DB	0efH
	DB	07eH
	DB	0f7H
	DB	07eH
	DB	0f7H
	DB	07dH
	DB	0efH
	DB	07eH
	DB	0f7H
	DB	07eH
	DB	0f7H
	DB	07dH
	DB	0efH
	DB	07eH
	DB	0f7H
	DB	07eH
	DB	0f7H
	DB	07dH
	DB	0efH
	DB	07eH
	DB	0f7H
	DB	07dH
	DB	0efH
	DB	07eH
	DB	0f7H
	DB	07eH
	DB	0f7H
	DB	07eH
	DB	0f7H
	DB	07dH
	DB	0efH
	DB	07eH
	DB	0f7H
	DB	07dH
	DB	0efH
	DB	07eH
	DB	0f7H
	DB	07eH
	DB	0f7H
	DB	09eH
	DB	0f7H
	DB	07eH
	DB	0f7H
	DB	07dH
	DB	0efH
	DB	07eH
	DB	0f7H
	DB	07eH
	DB	0f7H
	DB	07dH
	DB	0efH
	DB	07eH
	DB	0f7H
	DB	07dH
	DB	0efH
	DB	07eH
	DB	0f7H
	DB	07eH
	DB	0f7H
	DB	07eH
	DB	0f7H
	DB	07eH
	DB	0f7H
	DB	07dH
	DB	0efH
	DB	07eH
	DB	0f7H
	DB	07eH
	DB	0f7H
	DB	07dH
	DB	0efH
	DB	07eH
	DB	0f7H
	DB	07eH
	DB	0f7H
	DB	07eH
	DB	0f7H
	DB	07eH
	DB	0f7H
	DB	07eH
	DB	0f7H
	DB	07dH
	DB	0efH
	DB	07eH
	DB	0f7H
	DB	07eH
	DB	0f7H
	DB	07eH
	DB	0f7H
	DB	07eH
	DB	0f7H
	DB	07dH
	DB	0efH
	DB	07eH
	DB	0f7H
	DB	07eH
	DB	0f7H
	DB	07dH
	DB	0efH
	DB	07eH
	DB	0f7H
	DB	07eH
	DB	0f7H
	DB	07eH
	DB	0f7H
	DB	07eH
	DB	0f7H
	DB	07dH
	DB	0efH
	DB	09eH
	DB	0f7H
	DB	07eH
	DB	0f7H
	DB	07dH
	DB	0efH
	DB	07dH
	DB	0efH
	DB	07eH
	DB	0f7H
	DB	07eH
	DB	0f7H
	DB	07dH
	DB	0efH
	DB	07eH
	DB	0f7H
	DB	07eH
	DB	0f7H
	DB	07dH
	DB	0efH
	DB	07eH
	DB	0f7H
	DB	07eH
	DB	0f7H
	DB	07dH
	DB	0efH
	DB	07eH
	DB	0f7H
	DB	07eH
	DB	0f7H
	DB	07dH
	DB	0efH
	DB	07eH
	DB	0f7H
	DB	07eH
	DB	0f7H
	DB	07eH
	DB	0f7H
	DB	07dH
	DB	0efH
	DB	07eH
	DB	0f7H
	DB	07eH
	DB	0f7H
	DB	09eH
	DB	0f7H
	DB	07eH
	DB	0f7H
	DB	07eH
	DB	0f7H
	DB	07eH
	DB	0f7H
	DB	07dH
	DB	0efH
	DB	07eH
	DB	0f7H
	DB	07dH
	DB	0efH
	DB	07eH
	DB	0f7H
	DB	07eH
	DB	0f7H
	DB	07eH
	DB	0f7H
	DB	07eH
	DB	0f7H
	DB	07eH
	DB	0f7H
	DB	07dH
	DB	0efH
	DB	07eH
	DB	0f7H
	DB	07eH
	DB	0f7H
	DB	07dH
	DB	0efH
	DB	07eH
	DB	0f7H
	DB	07eH
	DB	0f7H
	DB	07dH
	DB	0efH
	DB	07eH
	DB	0f7H
	DB	07eH
	DB	0f7H
	DB	07eH
	DB	0f7H
	DB	09eH
	DB	0f7H
	DB	07dH
	DB	0efH
	DB	09eH
	DB	0f7H
	DB	07eH
	DB	0f7H
	DB	07eH
	DB	0f7H
	DB	09eH
	DB	0f7H
	DB	07dH
	DB	0efH
	DB	07eH
	DB	0f7H
	DB	07eH
	DB	0f7H
	DB	07dH
	DB	0efH
	DB	07eH
	DB	0f7H
	DB	09eH
	DB	0f7H
	DB	07dH
	DB	0efH
	DB	09eH
	DB	0f7H
	DB	07eH
	DB	0f7H
	DB	07eH
	DB	0f7H
	DB	09eH
	DB	0f7H
	DB	07dH
	DB	0efH
	DB	07eH
	DB	0f7H
	DB	07eH
	DB	0f7H
	DB	07eH
	DB	0f7H
	DB	09eH
	DB	0f7H
	DB	07eH
	DB	0f7H
	DB	07dH
	DB	0efH
	DB	07eH
	DB	0f7H
	DB	07dH
	DB	0efH
	DB	07eH
	DB	0f7H
	DB	09eH
	DB	0f7H
	DB	07dH
	DB	0efH
	DB	07eH
	DB	0f7H
	DB	07dH
	DB	0efH
	DB	07eH
	DB	0f7H
	DB	07eH
	DB	0f7H
	DB	07dH
	DB	0efH
	DB	09eH
	DB	0f7H
	DB	07eH
	DB	0f7H
	DB	07dH
	DB	0efH
	DB	09eH
	DB	0f7H
	DB	07eH
	DB	0f7H
	DB	09dH
	DB	0efH
	DB	07eH
	DB	0f7H
	DB	07eH
	DB	0f7H
	DB	09dH
	DB	0efH
	DB	07eH
	DB	0f7H
	DB	07eH
	DB	0f7H
	DB	07dH
	DB	0efH
	DB	07eH
	DB	0f7H
	DB	07eH
	DB	0f7H
	DB	07dH
	DB	0efH
	DB	07eH
	DB	0f7H
	DB	07dH
	DB	0efH
	DB	07dH
	DB	0efH
	DB	07eH
	DB	0f7H
	DB	07eH
	DB	0f7H
	DB	07dH
	DB	0efH
	DB	07eH
	DB	0f7H
	DB	07eH
	DB	0f7H
	DB	07dH
	DB	0efH
	DB	07eH
	DB	0f7H
	DB	07eH
	DB	0f7H
	DB	07dH
	DB	0efH
	DB	09eH
	DB	0f7H
	DB	07eH
	DB	0f7H
	DB	07dH
	DB	0efH
	DB	07eH
	DB	0f7H
	DB	09dH
	DB	0efH
	DB	07eH
	DB	0f7H
	DB	07eH
	DB	0f7H
	DB	07eH
	DB	0f7H
	DB	07eH
	DB	0f7H
	DB	07eH
	DB	0f7H
	DB	07eH
	DB	0f7H
	DB	07eH
	DB	0f7H
	DB	07dH
	DB	0efH
	DB	09eH
	DB	0f7H
	DB	07eH
	DB	0f7H
	DB	07dH
	DB	0efH
	DB	07eH
	DB	0f7H
	DB	07dH
	DB	0efH
	DB	07eH
	DB	0f7H
	DB	09dH
	DB	0efH
	DB	07eH
	DB	0f7H
	DB	07eH
	DB	0f7H
	DB	07dH
	DB	0efH
	DB	07eH
	DB	0f7H
	DB	07eH
	DB	0f7H
	DB	07dH
	DB	0efH
	DB	07eH
	DB	0f7H
	DB	07eH
	DB	0f7H
	DB	07dH
	DB	0efH
	DB	07eH
	DB	0f7H
	DB	07eH
	DB	0f7H
	DB	07dH
	DB	0efH
	DB	07eH
	DB	0f7H
	DB	07dH
	DB	0efH
	DB	07eH
	DB	0f7H
	DB	07eH
	DB	0f7H
	DB	07dH
	DB	0efH
	DB	07eH
	DB	0f7H
	DB	07eH
	DB	0f7H
	DB	07dH
	DB	0efH
	DB	07eH
	DB	0f7H
	DB	07eH
	DB	0f7H
	DB	07eH
	DB	0f7H
	DB	07eH
	DB	0f7H
	DB	07dH
	DB	0efH
	DB	07eH
	DB	0f7H
	DB	07eH
	DB	0f7H
	DB	07dH
	DB	0efH
	DB	07eH
	DB	0f7H
	DB	07dH
	DB	0efH
	DB	07eH
	DB	0f7H
	DB	07dH
	DB	0efH
	DB	07eH
	DB	0f7H
	DB	07eH
	DB	0f7H
	DB	07eH
	DB	0f7H
	DB	07dH
	DB	0efH
	DB	07eH
	DB	0f7H
	DB	09dH
	DB	0efH
	DB	07eH
	DB	0f7H
	DB	07eH
	DB	0f7H
	DB	07eH
	DB	0f7H
	DB	07eH
	DB	0f7H
	DB	07dH
	DB	0efH
	DB	07eH
	DB	0f7H
	DB	07dH
	DB	0efH
	DB	07eH
	DB	0f7H
	DB	07eH
	DB	0f7H
	DB	07eH
	DB	0f7H
	DB	07eH
	DB	0f7H
	DB	07eH
	DB	0f7H
	DB	09eH
	DB	0f7H
	DB	07eH
	DB	0f7H
	DB	07eH
	DB	0f7H
	DB	09dH
	DB	0efH
	DB	07eH
	DB	0f7H
	DB	09eH
	DB	0f7H
	DB	07eH
	DB	0f7H
	DB	07eH
	DB	0f7H
	DB	07eH
	DB	0f7H
	DB	07dH
	DB	0efH
	DB	07eH
	DB	0f7H
	DB	07dH
	DB	0efH
	DB	07eH
	DB	0f7H
	DB	07eH
	DB	0f7H
	DB	09eH
	DB	0f7H
	DB	07eH
	DB	0f7H
	DB	07dH
	DB	0efH
	DB	09eH
	DB	0f7H
	DB	07eH
	DB	0f7H
	DB	07dH
	DB	0efH
	DB	07eH
	DB	0f7H
	DB	07eH
	DB	0f7H
	DB	07eH
	DB	0f7H
	DB	07dH
	DB	0efH
	DB	07eH
	DB	0f7H
	DB	07eH
	DB	0f7H
	DB	07dH
	DB	0efH
	DB	07eH
	DB	0f7H
	DB	07eH
	DB	0f7H
	DB	07dH
	DB	0efH
	DB	07eH
	DB	0f7H
	DB	07eH
	DB	0f7H
	DB	09dH
	DB	0efH
	DB	07eH
	DB	0f7H
	DB	07dH
	DB	0efH
	DB	07dH
	DB	0efH
	DB	07eH
	DB	0f7H
	DB	07eH
	DB	0f7H
	DB	07dH
	DB	0efH
	DB	07eH
	DB	0f7H
	DB	07eH
	DB	0f7H
	DB	09dH
	DB	0efH
	DB	07eH
	DB	0f7H
	DB	07eH
	DB	0f7H
	DB	07dH
	DB	0efH
	DB	07eH
	DB	0f7H
	DB	07eH
	DB	0f7H
	DB	07eH
	DB	0f7H
	DB	07eH
	DB	0f7H
	DB	09eH
	DB	0f7H
	DB	07eH
	DB	0f7H
	DB	09dH
	DB	0efH
	DB	07eH
	DB	0f7H
	DB	07eH
	DB	0f7H
	DB	07eH
	DB	0f7H
	DB	07eH
	DB	0f7H
	DB	07eH
	DB	0f7H
	DB	09dH
	DB	0efH
	DB	07eH
	DB	0f7H
	DB	07eH
	DB	0f7H
	DB	07eH
	DB	0f7H
	DB	07eH
	DB	0f7H
	DB	07dH
	DB	0efH
	DB	07eH
	DB	0f7H
	DB	07eH
	DB	0f7H
	DB	07dH
	DB	0efH
	DB	07eH
	DB	0f7H
	DB	07eH
	DB	0f7H
	DB	07eH
	DB	0f7H
	DB	07dH
	DB	0efH
	DB	07eH
	DB	0f7H
	DB	07dH
	DB	0efH
	DB	07eH
	DB	0f7H
	DB	07eH
	DB	0f7H
	DB	07dH
	DB	0efH
	DB	09eH
	DB	0f7H
	DB	07dH
	DB	0efH
	DB	07eH
	DB	0f7H
	DB	07eH
	DB	0f7H
	DB	07dH
	DB	0efH
	DB	07eH
	DB	0f7H
	DB	07eH
	DB	0f7H
	DB	07eH
	DB	0f7H
	DB	07dH
	DB	0efH
	DB	07eH
	DB	0f7H
	DB	07eH
	DB	0f7H
	DB	07dH
	DB	0efH
	DB	07eH
	DB	0f7H
	DB	07dH
	DB	0efH
	DB	07dH
	DB	0efH
	DB	07eH
	DB	0f7H
	DB	07eH
	DB	0f7H
	DB	07eH
	DB	0f7H
	DB	07eH
	DB	0f7H
	DB	07eH
	DB	0f7H
	DB	07dH
	DB	0efH
	DB	07eH
	DB	0f7H
	DB	07eH
	DB	0f7H
	DB	07dH
	DB	0efH
	DB	07eH
	DB	0f7H
	DB	09eH
	DB	0f7H
	DB	07dH
	DB	0efH
	DB	07eH
	DB	0f7H
	DB	09eH
	DB	0f7H
	DB	07eH
	DB	0f7H
	DB	07dH
	DB	0efH
	DB	07eH
	DB	0f7H
	DB	07eH
	DB	0f7H
	DB	07dH
	DB	0efH
	DB	07eH
	DB	0f7H
	DB	07eH
	DB	0f7H
	DB	07dH
	DB	0efH
	DB	07eH
	DB	0f7H
	DB	07dH
	DB	0efH
	DB	07eH
	DB	0f7H
	DB	07eH
	DB	0f7H
	DB	07eH
	DB	0f7H
	DB	07dH
	DB	0efH
	DB	07eH
	DB	0f7H
	DB	07eH
	DB	0f7H
	DB	07dH
	DB	0efH
	DB	07eH
	DB	0f7H
	DB	07eH
	DB	0f7H
	DB	07eH
	DB	0f7H
	DB	09eH
	DB	0f7H
	DB	07dH
	DB	0efH
	DB	07eH
	DB	0f7H
	DB	07eH
	DB	0f7H
	DB	07eH
	DB	0f7H
	DB	07dH
	DB	0efH
	DB	07eH
	DB	0f7H
	DB	07dH
	DB	0efH
	DB	07eH
	DB	0f7H
	DB	07eH
	DB	0f7H
	DB	07eH
	DB	0f7H
	DB	07dH
	DB	0efH
	DB	07eH
	DB	0f7H
	DB	07eH
	DB	0f7H
	DB	07dH
	DB	0efH
	DB	09eH
	DB	0f7H
	DB	07eH
	DB	0f7H
	DB	07eH
	DB	0f7H
	DB	07eH
	DB	0f7H
	DB	07eH
	DB	0f7H
	DB	07dH
	DB	0efH
	DB	07eH
	DB	0f7H
	DB	07eH
	DB	0f7H
	DB	07eH
	DB	0f7H
	DB	09eH
	DB	0f7H
	DB	07dH
	DB	0efH
	DB	07eH
	DB	0f7H
	DB	07eH
	DB	0f7H
	DB	07dH
	DB	0efH
	DB	07eH
	DB	0f7H
	DB	07eH
	DB	0f7H
	DB	07eH
	DB	0f7H
	DB	07eH
	DB	0f7H
	DB	07dH
	DB	0efH
	DB	07eH
	DB	0f7H
	DB	07dH
	DB	0efH
	DB	07dH
	DB	0efH
	DB	07eH
	DB	0f7H
	DB	07dH
	DB	0efH
	DB	07eH
	DB	0f7H
	DB	07eH
	DB	0f7H
	DB	07dH
	DB	0efH
	DB	07eH
	DB	0f7H
	DB	07eH
	DB	0f7H
	DB	07dH
	DB	0efH
	DB	07eH
	DB	0f7H
	DB	07eH
	DB	0f7H
	DB	09eH
	DB	0f7H
	DB	07eH
	DB	0f7H
	DB	09dH
	DB	0efH
	DB	07eH
	DB	0f7H
	DB	07eH
	DB	0f7H
	DB	07dH
	DB	0efH
	DB	07eH
	DB	0f7H
	DB	07eH
	DB	0f7H
	DB	07eH
	DB	0f7H
	DB	07eH
	DB	0f7H
	DB	07dH
	DB	0efH
	DB	07eH
	DB	0f7H
	DB	07eH
	DB	0f7H
	DB	07dH
	DB	0efH
	DB	09eH
	DB	0f7H
	DB	07dH
	DB	0efH
	DB	07eH
	DB	0f7H
	DB	07eH
	DB	0f7H
	DB	07eH
	DB	0f7H
	DB	07eH
	DB	0f7H
	DB	07eH
	DB	0f7H
	DB	09eH
	DB	0f7H
	DB	07eH
	DB	0f7H
	DB	07eH
	DB	0f7H
	DB	07dH
	DB	0efH
	DB	07eH
	DB	0f7H
	DB	07eH
	DB	0f7H
	DB	07eH
	DB	0f7H
	DB	07eH
	DB	0f7H
	DB	07eH
	DB	0f7H
	DB	09dH
	DB	0efH
	DB	07eH
	DB	0f7H
	DB	07eH
	DB	0f7H
	DB	07eH
	DB	0f7H
	DB	07eH
	DB	0f7H
	DB	09eH
	DB	0f7H
	DB	07eH
	DB	0f7H
	DB	07dH
	DB	0efH
	DB	09eH
	DB	0f7H
	DB	07dH
	DB	0efH
	DB	07eH
	DB	0f7H
	DB	07dH
	DB	0efH
	DB	07eH
	DB	0f7H
	DB	07dH
	DB	0efH
	DB	09eH
	DB	0f7H
	DB	07eH
	DB	0f7H
	DB	07eH
	DB	0f7H
	DB	07eH
	DB	0f7H
	DB	07eH
	DB	0f7H
	DB	07dH
	DB	0efH
	DB	07eH
	DB	0f7H
	DB	07eH
	DB	0f7H
	DB	07dH
	DB	0efH
	DB	07eH
	DB	0f7H
	DB	07eH
	DB	0f7H
	DB	07eH
	DB	0f7H
	DB	09dH
	DB	0efH
	DB	07eH
	DB	0f7H
	DB	07eH
	DB	0f7H
	DB	09eH
	DB	0f7H
	DB	07dH
	DB	0efH
	DB	07eH
	DB	0f7H
	DB	09eH
	DB	0f7H
	DB	07eH
	DB	0f7H
	DB	07eH
	DB	0f7H
	DB	07eH
	DB	0f7H
	DB	07dH
	DB	0efH
	DB	09dH
	DB	0efH
	DB	07eH
	DB	0f7H
	DB	07dH
	DB	0efH
	DB	09eH
	DB	0f7H
	DB	07eH
	DB	0f7H
	DB	09dH
	DB	0efH
	DB	07eH
	DB	0f7H
	DB	09eH
	DB	0f7H
	DB	07dH
	DB	0efH
	DB	09eH
	DB	0f7H
	DB	09eH
	DB	0f7H
	DB	07dH
	DB	0efH
	DB	09eH
	DB	0f7H
	DB	09eH
	DB	0f7H
	DB	07dH
	DB	0efH
	DB	07eH
	DB	0f7H
	DB	09eH
	DB	0f7H
	DB	07dH
	DB	0efH
	DB	07eH
	DB	0f7H
	DB	09eH
	DB	0f7H
	DB	07dH
	DB	0efH
	DB	09eH
	DB	0f7H
	DB	09eH
	DB	0f7H
	DB	07eH
	DB	0f7H
	DB	09dH
	DB	0efH
	DB	07eH
	DB	0f7H
	DB	07eH
	DB	0f7H
	DB	07eH
	DB	0f7H
	DB	07dH
	DB	0efH
	DB	07eH
	DB	0f7H
	DB	07eH
	DB	0f7H
	DB	09dH
	DB	0efH
	DB	07eH
	DB	0f7H
	DB	07eH
	DB	0f7H
	DB	07dH
	DB	0efH
	DB	09eH
	DB	0f7H
	DB	07eH
	DB	0f7H
	DB	07dH
	DB	0efH
	DB	07eH
	DB	0f7H
	DB	07eH
	DB	0f7H
	DB	07dH
	DB	0efH
	DB	09eH
	DB	0f7H
	DB	07eH
	DB	0f7H
	DB	07dH
	DB	0efH
	DB	09eH
	DB	0f7H
	DB	07eH
	DB	0f7H
	DB	09dH
	DB	0efH
	DB	07eH
	DB	0f7H
	DB	07dH
	DB	0efH
	DB	09eH
	DB	0f7H
	DB	07eH
	DB	0f7H
	DB	09dH
	DB	0efH
	DB	07eH
	DB	0f7H
	DB	09eH
	DB	0f7H
	DB	07dH
	DB	0efH
	DB	09eH
	DB	0f7H
	DB	07eH
	DB	0f7H
	DB	07dH
	DB	0efH
	DB	09eH
	DB	0f7H
	DB	07eH
	DB	0f7H
	DB	07dH
	DB	0efH
	DB	09eH
	DB	0f7H
	DB	07eH
	DB	0f7H
	DB	07dH
	DB	0efH
	DB	09eH
	DB	0f7H
	DB	07eH
	DB	0f7H
	DB	07dH
	DB	0efH
	DB	07eH
	DB	0f7H
	DB	09eH
	DB	0f7H
	DB	07eH
	DB	0f7H
	DB	09eH
	DB	0f7H
	DB	07dH
	DB	0efH
	DB	09eH
	DB	0f7H
	DB	09eH
	DB	0f7H
	DB	07eH
	DB	0f7H
	DB	07dH
	DB	0efH
	DB	09eH
	DB	0f7H
	DB	07eH
	DB	0f7H
	DB	07dH
	DB	0efH
	DB	09eH
	DB	0f7H
	DB	07eH
	DB	0f7H
	DB	07dH
	DB	0efH
	DB	09eH
	DB	0f7H
	DB	07eH
	DB	0f7H
	DB	07dH
	DB	0efH
	DB	09eH
	DB	0f7H
	DB	07eH
	DB	0f7H
	DB	07dH
	DB	0efH
	DB	07eH
	DB	0f7H
	DB	07dH
	DB	0efH
	DB	09eH
	DB	0f7H
	DB	07eH
	DB	0f7H
	DB	09eH
	DB	0f7H
	DB	07eH
	DB	0f7H
	DB	07dH
	DB	0efH
	DB	07eH
	DB	0f7H
	DB	07dH
	DB	0efH
	DB	09eH
	DB	0f7H
	DB	07dH
	DB	0efH
	DB	07eH
	DB	0f7H
	DB	09eH
	DB	0f7H
	DB	07dH
	DB	0efH
	DB	09eH
	DB	0f7H
	DB	07eH
	DB	0f7H
	DB	07dH
	DB	0efH
	DB	09eH
	DB	0f7H
	DB	07eH
	DB	0f7H
	DB	07dH
	DB	0efH
	DB	09eH
	DB	0f7H
	DB	07dH
	DB	0efH
	DB	07eH
	DB	0f7H
	DB	07eH
	DB	0f7H
	DB	07dH
	DB	0efH
	DB	07eH
	DB	0f7H
	DB	09eH
	DB	0f7H
	DB	07dH
	DB	0efH
	DB	07eH
	DB	0f7H
	DB	09eH
	DB	0f7H
	DB	07dH
	DB	0efH
	DB	09eH
	DB	0f7H
	DB	07eH
	DB	0f7H
	DB	07eH
	DB	0f7H
	DB	07dH
	DB	0efH
	DB	09eH
	DB	0f7H
	DB	07eH
	DB	0f7H
	DB	07eH
	DB	0f7H
	DB	07dH
	DB	0efH
	DB	09eH
	DB	0f7H
	DB	07eH
	DB	0f7H
	DB	07dH
	DB	0efH
	DB	09eH
	DB	0f7H
	DB	07dH
	DB	0efH
	DB	07eH
	DB	0f7H
	DB	07eH
	DB	0f7H
	DB	07eH
	DB	0f7H
	DB	09dH
	DB	0efH
	DB	07eH
	DB	0f7H
	DB	07eH
	DB	0f7H
	DB	09dH
	DB	0efH
	DB	07eH
	DB	0f7H
	DB	07eH
	DB	0f7H
	DB	09eH
	DB	0f7H
	DB	07dH
	DB	0efH
	DB	07eH
	DB	0f7H
	DB	09eH
	DB	0f7H
	DB	07eH
	DB	0f7H
	DB	07dH
	DB	0efH
	DB	09eH
	DB	0f7H
	DB	07eH
	DB	0f7H
	DB	07eH
	DB	0f7H
	DB	07dH
	DB	0efH
	DB	09eH
	DB	0f7H
	DB	07eH
	DB	0f7H
	DB	07dH
	DB	0efH
	DB	09eH
	DB	0f7H
	DB	07eH
	DB	0f7H
	DB	07dH
	DB	0efH
	DB	09eH
	DB	0f7H
	DB	07eH
	DB	0f7H
	DB	09eH
	DB	0f7H
	DB	07dH
	DB	0efH
	DB	07eH
	DB	0f7H
	DB	09eH
	DB	0f7H
	DB	07eH
	DB	0f7H
	DB	07dH
	DB	0efH
	DB	09eH
	DB	0f7H
	DB	09eH
	DB	0f7H
	DB	07dH
	DB	0efH
	DB	09eH
	DB	0f7H
	DB	09eH
	DB	0f7H
	DB	07dH
	DB	0efH
	DB	07eH
	DB	0f7H
	DB	07eH
	DB	0f7H
	DB	09eH
	DB	0f7H
	DB	07eH
	DB	0f7H
	DB	07dH
	DB	0efH
	DB	09eH
	DB	0f7H
	DB	07dH
	DB	0efH
	DB	07eH
	DB	0f7H
	DB	09dH
	DB	0efH
	DB	09eH
	DB	0f7H
	DB	07eH
	DB	0f7H
	DB	09dH
	DB	0efH
	DB	07eH
	DB	0f7H
	DB	07eH
	DB	0f7H
	DB	07eH
	DB	0f7H
	DB	09dH
	DB	0efH
	DB	07eH
	DB	0f7H
	DB	09eH
	DB	0f7H
	DB	07eH
	DB	0f7H
	DB	07dH
	DB	0efH
	DB	09eH
	DB	0f7H
	DB	07eH
	DB	0f7H
	DB	09dH
	DB	0efH
	DB	09eH
	DB	0f7H
	DB	07eH
	DB	0f7H
	DB	07eH
	DB	0f7H
	DB	09dH
	DB	0efH
	DB	07eH
	DB	0f7H
	DB	07eH
	DB	0f7H
	DB	09eH
	DB	0f7H
	DB	07dH
	DB	0efH
	DB	07eH
	DB	0f7H
	DB	09eH
	DB	0f7H
	DB	07dH
	DB	0efH
	DB	07eH
	DB	0f7H
	DB	07eH
	DB	0f7H
	DB	07dH
	DB	0efH
	DB	09eH
	DB	0f7H
	DB	07eH
	DB	0f7H
	DB	09dH
	DB	0efH
	DB	07eH
	DB	0f7H
	DB	09dH
	DB	0efH
	DB	07dH
	DB	0efH
	DB	09eH
	DB	0f7H
	DB	09eH
	DB	0f7H
	DB	07dH
	DB	0efH
	DB	09eH
	DB	0f7H
	DB	07eH
	DB	0f7H
	DB	09eH
	DB	0f7H
	DB	07eH
	DB	0f7H
	DB	09eH
	DB	0f7H
	DB	07dH
	DB	0efH
	DB	09eH
	DB	0f7H
	DB	07dH
	DB	0efH
	DB	09eH
	DB	0f7H
	DB	09eH
	DB	0f7H
	DB	07eH
	DB	0f7H
	DB	07dH
	DB	0efH
	DB	07eH
	DB	0f7H
	DB	09eH
	DB	0f7H
	DB	07dH
	DB	0efH
	DB	09eH
	DB	0f7H
	DB	07eH
	DB	0f7H
	DB	07eH
	DB	0f7H
	DB	09dH
	DB	0efH
	DB	07eH
	DB	0f7H
	DB	09dH
	DB	0efH
	DB	07eH
	DB	0f7H
	DB	09eH
	DB	0f7H
	DB	07dH
	DB	0efH
	DB	07eH
	DB	0f7H
	DB	09eH
	DB	0f7H
	DB	07dH
	DB	0efH
	DB	07eH
	DB	0f7H
	DB	07eH
	DB	0f7H
	DB	09dH
	DB	0efH
	DB	07eH
	DB	0f7H
	DB	07dH
	DB	0efH
	DB	09eH
	DB	0f7H
	DB	09eH
	DB	0f7H
	DB	07dH
	DB	0efH
	DB	07eH
	DB	0f7H
	DB	09eH
	DB	0f7H
	DB	07dH
	DB	0efH
	DB	07eH
	DB	0f7H
	DB	09eH
	DB	0f7H
	DB	07eH
	DB	0f7H
	DB	07dH
	DB	0efH
	DB	07eH
	DB	0f7H
	DB	09eH
	DB	0f7H
	DB	07dH
	DB	0efH
	DB	07eH
	DB	0f7H
	DB	09eH
	DB	0f7H
	DB	07dH
	DB	0efH
	DB	09eH
	DB	0f7H
	DB	09eH
	DB	0f7H
	DB	07dH
	DB	0efH
	DB	07eH
	DB	0f7H
	DB	09eH
	DB	0f7H
	DB	07dH
	DB	0efH
	DB	07eH
	DB	0f7H
	DB	07eH
	DB	0f7H
	DB	07dH
	DB	0efH
	DB	07eH
	DB	0f7H
	DB	09eH
	DB	0f7H
	DB	07eH
	DB	0f7H
	DB	07dH
	DB	0efH
	DB	09eH
	DB	0f7H
	DB	07eH
	DB	0f7H
	DB	07dH
	DB	0efH
	DB	09eH
	DB	0f7H
	DB	07eH
	DB	0f7H
	DB	07dH
	DB	0efH
	DB	09eH
	DB	0f7H
	DB	07eH
	DB	0f7H
	DB	07dH
	DB	0efH
	DB	09eH
	DB	0f7H
	DB	07eH
	DB	0f7H
	DB	07dH
	DB	0efH
	DB	09eH
	DB	0f7H
	DB	07eH
	DB	0f7H
	DB	07dH
	DB	0efH
	DB	07eH
	DB	0f7H
	DB	09eH
	DB	0f7H
	DB	07dH
	DB	0efH
	DB	09dH
	DB	0efH
	DB	07eH
	DB	0f7H
	DB	07eH
	DB	0f7H
	DB	09dH
	DB	0efH
	DB	07eH
	DB	0f7H
	DB	07eH
	DB	0f7H
	DB	09dH
	DB	0efH
	DB	07eH
	DB	0f7H
	DB	07eH
	DB	0f7H
	DB	09dH
	DB	0efH
	DB	07eH
	DB	0f7H
	DB	07eH
	DB	0f7H
	DB	07dH
	DB	0efH
	DB	09eH
	DB	0f7H
	DB	07eH
	DB	0f7H
	DB	09dH
	DB	0efH
	DB	07eH
	DB	0f7H
	DB	07eH
	DB	0f7H
	DB	09dH
	DB	0efH
	DB	07eH
	DB	0f7H
	DB	07eH
	DB	0f7H
	DB	07eH
	DB	0f7H
	DB	09eH
	DB	0f7H
	DB	07dH
	DB	0efH
	DB	07eH
	DB	0f7H
	DB	09eH
	DB	0f7H
	DB	07dH
	DB	0efH
	DB	09eH
	DB	0f7H
	DB	09eH
	DB	0f7H
	DB	07eH
	DB	0f7H
	DB	09eH
	DB	0f7H
	DB	07dH
	DB	0efH
	DB	09eH
	DB	0f7H
	DB	07eH
	DB	0f7H
	DB	07eH
	DB	0f7H
	DB	09eH
	DB	0f7H
	DB	09dH
	DB	0efH
	DB	07eH
	DB	0f7H
	DB	09dH
	DB	0efH
	DB	09eH
	DB	0f7H
	DB	07eH
	DB	0f7H
	DB	07dH
	DB	0efH
	DB	09eH
	DB	0f7H
	DB	07eH
	DB	0f7H
	DB	07dH
	DB	0efH
	DB	07eH
	DB	0f7H
	DB	07eH
	DB	0f7H
	DB	09dH
	DB	0efH
	DB	07eH
	DB	0f7H
	DB	07eH
	DB	0f7H
	DB	09dH
	DB	0efH
	DB	07eH
	DB	0f7H
	DB	07eH
	DB	0f7H
	DB	09eH
	DB	0f7H
	DB	07eH
	DB	0f7H
	DB	07eH
	DB	0f7H
	DB	07dH
	DB	0efH
	DB	07eH
	DB	0f7H
	DB	09eH
	DB	0f7H
	DB	07eH
	DB	0f7H
	DB	07dH
	DB	0efH
	DB	09eH
	DB	0f7H
	DB	07eH
	DB	0f7H
	DB	09dH
	DB	0efH
	DB	07eH
	DB	0f7H
	DB	07eH
	DB	0f7H
	DB	07dH
	DB	0efH
	DB	07eH
	DB	0f7H
	DB	09eH
	DB	0f7H
	DB	07dH
	DB	0efH
	DB	07eH
	DB	0f7H
	DB	07eH
	DB	0f7H
	DB	07dH
	DB	0efH
	DB	09eH
	DB	0f7H
	DB	07dH
	DB	0efH
	DB	09eH
	DB	0f7H
	DB	07eH
	DB	0f7H
	DB	07eH
	DB	0f7H
	DB	09dH
	DB	0efH
	DB	07eH
	DB	0f7H
	DB	09eH
	DB	0f7H
	DB	07dH
	DB	0efH
	DB	09eH
	DB	0f7H
	DB	07eH
	DB	0f7H
	DB	07dH
	DB	0efH
	DB	07eH
	DB	0f7H
	DB	09eH
	DB	0f7H
	DB	07dH
	DB	0efH
	DB	09eH
	DB	0f7H
	DB	09eH
	DB	0f7H
	DB	07dH
	DB	0efH
	DB	09eH
	DB	0f7H
	DB	07eH
	DB	0f7H
	DB	07dH
	DB	0efH
	DB	09eH
	DB	0f7H
	DB	07eH
	DB	0f7H
	DB	07dH
	DB	0efH
	DB	09eH
	DB	0f7H
	DB	07dH
	DB	0efH
	DB	07eH
	DB	0f7H
	DB	09eH
	DB	0f7H
	DB	07dH
	DB	0efH
	DB	09eH
	DB	0f7H
	DB	07eH
	DB	0f7H
	DB	09eH
	DB	0f7H
	DB	07eH
	DB	0f7H
	DB	07eH
	DB	0f7H
	DB	09dH
	DB	0efH
	DB	09eH
	DB	0f7H
	DB	07eH
	DB	0f7H
	DB	07eH
	DB	0f7H
	DB	07dH
	DB	0efH
	DB	07eH
	DB	0f7H
	DB	09eH
	DB	0f7H
	DB	07eH
	DB	0f7H
	DB	07eH
	DB	0f7H
	DB	09eH
	DB	0f7H
	DB	07dH
	DB	0efH
	DB	07eH
	DB	0f7H
	DB	07eH
	DB	0f7H
	DB	09dH
	DB	0efH
	DB	07eH
	DB	0f7H
	DB	07dH
	DB	0efH
	DB	09eH
	DB	0f7H
	DB	07eH
	DB	0f7H
	DB	07dH
	DB	0efH
	DB	09eH
	DB	0f7H
	DB	07eH
	DB	0f7H
	DB	07eH
	DB	0f7H
	DB	07eH
	DB	0f7H
	DB	09eH
	DB	0f7H
	DB	07dH
	DB	0efH
	DB	07eH
	DB	0f7H
	DB	07dH
	DB	0efH
	DB	09eH
	DB	0f7H
	DB	07dH
	DB	0efH
	DB	07eH
	DB	0f7H
	DB	09eH
	DB	0f7H
	DB	07dH
	DB	0efH
	DB	07eH
	DB	0f7H
	DB	09eH
	DB	0f7H
	DB	07dH
	DB	0efH
	DB	09eH
	DB	0f7H
	DB	07eH
	DB	0f7H
	DB	09dH
	DB	0efH
	DB	07eH
	DB	0f7H
	DB	07eH
	DB	0f7H
	DB	09dH
	DB	0efH
	DB	07eH
	DB	0f7H
	DB	09eH
	DB	0f7H
	DB	07dH
	DB	0efH
	DB	07eH
	DB	0f7H
	DB	09eH
	DB	0f7H
	DB	07eH
	DB	0f7H
	DB	07eH
	DB	0f7H
	DB	07dH
	DB	0efH
	DB	07eH
	DB	0f7H
	DB	07eH
	DB	0f7H
	DB	07eH
	DB	0f7H
	DB	07dH
	DB	0efH
	DB	07eH
	DB	0f7H
	DB	07eH
	DB	0f7H
	DB	09dH
	DB	0efH
	DB	07dH
	DB	0efH
	DB	07eH
	DB	0f7H
	DB	09eH
	DB	0f7H
	DB	07dH
	DB	0efH
	DB	07eH
	DB	0f7H
	DB	09eH
	DB	0f7H
	DB	07dH
	DB	0efH
	DB	07eH
	DB	0f7H
	DB	07dH
	DB	0efH
	DB	07eH
	DB	0f7H
	DB	09dH
	DB	0efH
	DB	07eH
	DB	0f7H
	DB	07dH
	DB	0efH
	DB	09dH
	DB	0efH
	DB	07eH
	DB	0f7H
	DB	07dH
	DB	0efH
	DB	07dH
	DB	0efH
	DB	09eH
	DB	0f7H
	DB	07dH
	DB	0efH
	DB	07eH
	DB	0f7H
	DB	09eH
	DB	0f7H
	DB	07dH
	DB	0efH
	DB	07eH
	DB	0f7H
	DB	07dH
	DB	0efH
	DB	07dH
	DB	0efH
	DB	07eH
	DB	0f7H
	DB	07dH
	DB	0efH
	DB	09eH
	DB	0f7H
	DB	07eH
	DB	0f7H
	DB	07dH
	DB	0efH
	DB	07dH
	DB	0efH
	DB	07eH
	DB	0f7H
	DB	07dH
	DB	0efH
	DB	07eH
	DB	0f7H
	DB	07dH
	DB	0efH
	DB	07eH
	DB	0f7H
	DB	09dH
	DB	0efH
	DB	07eH
	DB	0f7H
	DB	07dH
	DB	0efH
	DB	09eH
	DB	0f7H
	DB	07eH
	DB	0f7H
	DB	07dH
	DB	0efH
	DB	07eH
	DB	0f7H
	DB	07dH
	DB	0efH
	DB	07eH
	DB	0f7H
	DB	07dH
	DB	0efH
	DB	09dH
	DB	0efH
	DB	07eH
	DB	0f7H
	DB	09dH
	DB	0efH
	DB	09eH
	DB	0f7H
	DB	07eH
	DB	0f7H
	DB	07dH
	DB	0efH
	DB	07dH
	DB	0efH
	DB	07eH
	DB	0f7H
	DB	09dH
	DB	0efH
	DB	07eH
	DB	0f7H
	DB	07eH
	DB	0f7H
	DB	09dH
	DB	0efH
	DB	07eH
	DB	0f7H
	DB	09eH
	DB	0f7H
	DB	07dH
	DB	0efH
	DB	07eH
	DB	0f7H
	DB	09dH
	DB	0efH
	DB	07eH
	DB	0f7H
	DB	07dH
	DB	0efH
	DB	09eH
	DB	0f7H
	DB	07eH
	DB	0f7H
	DB	07dH
	DB	0efH
	DB	09eH
	DB	0f7H
	DB	07eH
	DB	0f7H
	DB	07dH
	DB	0efH
	DB	07dH
	DB	0efH
	DB	07eH
	DB	0f7H
	DB	09dH
	DB	0efH
	DB	07eH
	DB	0f7H
	DB	07eH
	DB	0f7H
	DB	07dH
	DB	0efH
	DB	09dH
	DB	0efH
	DB	07eH
	DB	0f7H
	DB	07eH
	DB	0f7H
	DB	07dH
	DB	0efH
	DB	09dH
	DB	0efH
	DB	07eH
	DB	0f7H
	DB	07dH
	DB	0efH
	DB	09dH
	DB	0efH
	DB	07eH
	DB	0f7H
	DB	07eH
	DB	0f7H
	DB	09dH
	DB	0efH
	DB	07eH
	DB	0f7H
	DB	07dH
	DB	0efH
	DB	07eH
	DB	0f7H
	DB	07eH
	DB	0f7H
	DB	07dH
	DB	0efH
	DB	07dH
	DB	0efH
	DB	07eH
	DB	0f7H
	DB	07dH
	DB	0efH
	DB	09eH
	DB	0f7H
	DB	07dH
	DB	0efH
	DB	07eH
	DB	0f7H
	DB	09dH
	DB	0efH
	DB	07eH
	DB	0f7H
	DB	07eH
	DB	0f7H
	DB	09dH
	DB	0efH
	DB	07eH
	DB	0f7H
	DB	07dH
	DB	0efH
	DB	09dH
	DB	0efH
	DB	07eH
	DB	0f7H
	DB	07eH
	DB	0f7H
	DB	09dH
	DB	0efH
	DB	07eH
	DB	0f7H
	DB	07dH
	DB	0efH
	DB	07dH
	DB	0efH
	DB	07dH
	DB	0efH
	DB	09eH
	DB	0f7H
	DB	07dH
	DB	0efH
	DB	09eH
	DB	0f7H
	DB	07eH
	DB	0f7H
	DB	07dH
	DB	0efH
	DB	09eH
	DB	0f7H
	DB	07dH
	DB	0efH
	DB	07dH
	DB	0efH
	DB	07eH
	DB	0f7H
	DB	07eH
	DB	0f7H
	DB	09dH
	DB	0efH
	DB	07eH
	DB	0f7H
	DB	07eH
	DB	0f7H
	DB	09dH
	DB	0efH
	DB	07eH
	DB	0f7H
	DB	07eH
	DB	0f7H
	DB	09dH
	DB	0efH
	DB	07eH
	DB	0f7H
	DB	07dH
	DB	0efH
	DB	09eH
	DB	0f7H
	DB	07dH
	DB	0efH
	DB	07eH
	DB	0f7H
	DB	07dH
	DB	0efH
	DB	07dH
	DB	0efH
	DB	07eH
	DB	0f7H
	DB	07eH
	DB	0f7H
	DB	07dH
	DB	0efH
	DB	09dH
	DB	0efH
	DB	07eH
	DB	0f7H
	DB	07dH
	DB	0efH
	DB	09eH
	DB	0f7H
	DB	07eH
	DB	0f7H
	DB	07dH
	DB	0efH
	DB	07dH
	DB	0efH
	DB	09eH
	DB	0f7H
	DB	07dH
	DB	0efH
	DB	07eH
	DB	0f7H
	DB	07eH
	DB	0f7H
	DB	09dH
	DB	0efH
	DB	07dH
	DB	0efH
	DB	07eH
	DB	0f7H
	DB	09dH
	DB	0efH
	DB	07eH
	DB	0f7H
	DB	07eH
	DB	0f7H
	DB	09dH
	DB	0efH
	DB	07eH
	DB	0f7H
	DB	07eH
	DB	0f7H
	DB	07dH
	DB	0efH
	DB	07eH
	DB	0f7H
	DB	09dH
	DB	0efH
	DB	07eH
	DB	0f7H
	DB	07dH
	DB	0efH
	DB	07eH
	DB	0f7H
	DB	07dH
	DB	0efH
	DB	07eH
	DB	0f7H
	DB	07dH
	DB	0efH
	DB	07eH
	DB	0f7H
	DB	07dH
	DB	0efH
	DB	07eH
	DB	0f7H
	DB	07dH
	DB	0efH
	DB	07eH
	DB	0f7H
	DB	07eH
	DB	0f7H
	DB	07dH
	DB	0efH
	DB	09eH
	DB	0f7H
	DB	07eH
	DB	0f7H
	DB	07dH
	DB	0efH
	DB	07dH
	DB	0efH
	DB	09eH
	DB	0f7H
	DB	07eH
	DB	0f7H
	DB	07dH
	DB	0efH
	DB	09eH
	DB	0f7H
	DB	07eH
	DB	0f7H
	DB	07dH
	DB	0efH
	DB	07eH
	DB	0f7H
	DB	07dH
	DB	0efH
	DB	07eH
	DB	0f7H
	DB	07eH
	DB	0f7H
	DB	07dH
	DB	0efH
	DB	07eH
	DB	0f7H
	DB	09eH
	DB	0f7H
	DB	07dH
	DB	0efH
	DB	07dH
	DB	0efH
	DB	07eH
	DB	0f7H
	DB	07eH
	DB	0f7H
	DB	07eH
	DB	0f7H
	DB	07dH
	DB	0efH
	DB	07eH
	DB	0f7H
	DB	07dH
	DB	0efH
	DB	07dH
	DB	0efH
	DB	07eH
	DB	0f7H
	DB	09dH
	DB	0efH
	DB	07dH
	DB	0efH
	DB	07eH
	DB	0f7H
	DB	07dH
	DB	0efH
	DB	07eH
	DB	0f7H
	DB	07dH
	DB	0efH
	DB	07eH
	DB	0f7H
	DB	09dH
	DB	0efH
	DB	07eH
	DB	0f7H
	DB	07eH
	DB	0f7H
	DB	07dH
	DB	0efH
	DB	07eH
	DB	0f7H
	DB	07dH
	DB	0efH
	DB	07dH
	DB	0efH
	DB	09eH
	DB	0f7H
	DB	07eH
	DB	0f7H
	DB	07dH
	DB	0efH
	DB	09dH
	DB	0efH
	DB	07eH
	DB	0f7H
	DB	07dH
	DB	0efH
	DB	09eH
	DB	0f7H
	DB	07eH
	DB	0f7H
	DB	07dH
	DB	0efH
	DB	09eH
	DB	0f7H
	DB	07eH
	DB	0f7H
	DB	07dH
	DB	0efH
	DB	07eH
	DB	0f7H
	DB	09dH
	DB	0efH
	DB	07eH
	DB	0f7H
	DB	07eH
	DB	0f7H
	DB	07eH
	DB	0f7H
	DB	07dH
	DB	0efH
	DB	07eH
	DB	0f7H
	DB	07dH
	DB	0efH
	DB	07eH
	DB	0f7H
	DB	07dH
	DB	0efH
	DB	09dH
	DB	0efH
	DB	07eH
	DB	0f7H
	DB	07dH
	DB	0efH
	DB	07eH
	DB	0f7H
	DB	07eH
	DB	0f7H
	DB	07dH
	DB	0efH
	DB	07eH
	DB	0f7H
	DB	07dH
	DB	0efH
	DB	07dH
	DB	0efH
	DB	07eH
	DB	0f7H
	DB	09eH
	DB	0f7H
	DB	07dH
	DB	0efH
	DB	07eH
	DB	0f7H
	DB	07dH
	DB	0efH
	DB	09dH
	DB	0efH
	DB	07eH
	DB	0f7H
	DB	07dH
	DB	0efH
	DB	09eH
	DB	0f7H
	DB	07eH
	DB	0f7H
	DB	07dH
	DB	0efH
	DB	07dH
	DB	0efH
	DB	09eH
	DB	0f7H
	DB	07dH
	DB	0efH
	DB	07dH
	DB	0efH
	DB	07eH
	DB	0f7H
	DB	09dH
	DB	0efH
	DB	07eH
	DB	0f7H
	DB	07eH
	DB	0f7H
	DB	07dH
	DB	0efH
	DB	07dH
	DB	0efH
	DB	07eH
	DB	0f7H
	DB	07dH
	DB	0efH
	DB	07eH
	DB	0f7H
	DB	07eH
	DB	0f7H
	DB	09dH
	DB	0efH
	DB	07eH
	DB	0f7H
	DB	07dH
	DB	0efH
	DB	07dH
	DB	0efH
	DB	07eH
	DB	0f7H
	DB	09dH
	DB	0efH
	DB	07eH
	DB	0f7H
	DB	07dH
	DB	0efH
	DB	07eH
	DB	0f7H
	DB	07eH
	DB	0f7H
	DB	09dH
	DB	0efH
	DB	07eH
	DB	0f7H
	DB	07dH
	DB	0efH
	DB	07eH
	DB	0f7H
	DB	07eH
	DB	0f7H
	DB	07dH
	DB	0efH
	DB	09eH
	DB	0f7H
	DB	07dH
	DB	0efH
	DB	07eH
	DB	0f7H
	DB	09eH
	DB	0f7H
	DB	09dH
	DB	0efH
	DB	07eH
	DB	0f7H
	DB	07eH
	DB	0f7H
	DB	07dH
	DB	0efH
	DB	07eH
	DB	0f7H
	DB	07eH
	DB	0f7H
	DB	09dH
	DB	0efH
	DB	07eH
	DB	0f7H
	DB	07eH
	DB	0f7H
	DB	09dH
	DB	0efH
	DB	07eH
	DB	0f7H
	DB	07dH
	DB	0efH
	DB	07eH
	DB	0f7H
	DB	09eH
	DB	0f7H
	DB	07dH
	DB	0efH
	DB	07dH
	DB	0efH
	DB	09eH
	DB	0f7H
	DB	07dH
	DB	0efH
	DB	07dH
	DB	0efH
	DB	07eH
	DB	0f7H
	DB	07dH
	DB	0efH
	DB	07eH
	DB	0f7H
	DB	07eH
	DB	0f7H
	DB	07dH
	DB	0efH
	DB	09eH
	DB	0f7H
	DB	07dH
	DB	0efH
	DB	07eH
	DB	0f7H
	DB	07eH
	DB	0f7H
	DB	07dH
	DB	0efH
	DB	09eH
	DB	0f7H
	DB	07dH
	DB	0efH
	DB	07eH
	DB	0f7H
	DB	09eH
	DB	0f7H
	DB	07dH
	DB	0efH
	DB	07eH
	DB	0f7H
	DB	09dH
	DB	0efH
	DB	07dH
	DB	0efH
	DB	07eH
	DB	0f7H
	DB	09dH
	DB	0efH
	DB	07eH
	DB	0f7H
	DB	07eH
	DB	0f7H
	DB	09dH
	DB	0efH
	DB	07eH
	DB	0f7H
	DB	07dH
	DB	0efH
	DB	09eH
	DB	0f7H
	DB	07dH
	DB	0efH
	DB	07eH
	DB	0f7H
	DB	07dH
	DB	0efH
	DB	09eH
	DB	0f7H
	DB	07eH
	DB	0f7H
	DB	07dH
	DB	0efH
	DB	07dH
	DB	0efH
	DB	07eH
	DB	0f7H
	DB	07dH
	DB	0efH
	DB	07dH
	DB	0efH
	DB	07eH
	DB	0f7H
	DB	09eH
	DB	0f7H
	DB	07dH
	DB	0efH
	DB	07eH
	DB	0f7H
	DB	07eH
	DB	0f7H
	DB	07dH
	DB	0efH
	DB	07eH
	DB	0f7H
	DB	07dH
	DB	0efH
	DB	07dH
	DB	0efH
	DB	07eH
	DB	0f7H
	DB	09eH
	DB	0f7H
	DB	07dH
	DB	0efH
	DB	07eH
	DB	0f7H
	DB	09eH
	DB	0f7H
	DB	07dH
	DB	0efH
	DB	07eH
	DB	0f7H
	DB	07dH
	DB	0efH
	DB	07eH
	DB	0f7H
	DB	07dH
	DB	0efH
	DB	07eH
	DB	0f7H
	DB	07dH
	DB	0efH
	DB	07dH
	DB	0efH
	DB	09eH
	DB	0f7H
	DB	07dH
	DB	0efH
	DB	09dH
	DB	0efH
	DB	07eH
	DB	0f7H
	DB	07eH
	DB	0f7H
	DB	09dH
	DB	0efH
	DB	07eH
	DB	0f7H
	DB	07dH
	DB	0efH
	DB	07dH
	DB	0efH
	DB	09eH
	DB	0f7H
	DB	07eH
	DB	0f7H
	DB	07dH
	DB	0efH
	DB	09eH
	DB	0f7H
	DB	09eH
	DB	0f7H
	DB	07dH
	DB	0efH
	DB	07eH
	DB	0f7H
	DB	09dH
	DB	0efH
	DB	07eH
	DB	0f7H
	DB	07eH
	DB	0f7H
	DB	09dH
	DB	0efH
	DB	07eH
	DB	0f7H
	DB	07eH
	DB	0f7H
	DB	07dH
	DB	0efH
	DB	09eH
	DB	0f7H
	DB	07dH
	DB	0efH
	DB	07eH
	DB	0f7H
	DB	09dH
	DB	0efH
	DB	07eH
	DB	0f7H
	DB	07eH
	DB	0f7H
	DB	07dH
	DB	0efH
	DB	09eH
	DB	0f7H
	DB	07eH
	DB	0f7H
	DB	07dH
	DB	0efH
	DB	07dH
	DB	0efH
	DB	07eH
	DB	0f7H
	DB	07dH
	DB	0efH
	DB	07eH
	DB	0f7H
	DB	07eH
	DB	0f7H
	DB	09dH
	DB	0efH
	DB	07eH
	DB	0f7H
	DB	07dH
	DB	0efH
	DB	07eH
	DB	0f7H
	DB	07eH
	DB	0f7H
	DB	09dH
	DB	0efH
	DB	07eH
	DB	0f7H
	DB	07eH
	DB	0f7H
	DB	09dH
	DB	0efH
	DB	07dH
	DB	0efH
	DB	07eH
	DB	0f7H
	DB	07dH
	DB	0efH
	DB	07eH
	DB	0f7H
	DB	09dH
	DB	0efH
	DB	07eH
	DB	0f7H
	DB	07eH
	DB	0f7H
	DB	07dH
	DB	0efH
	DB	07eH
	DB	0f7H
	DB	09dH
	DB	0efH
	DB	09eH
	DB	0f7H
	DB	07eH
	DB	0f7H
	DB	07dH
	DB	0efH
	DB	09dH
	DB	0efH
	DB	07dH
	DB	0efH
	DB	07eH
	DB	0f7H
	DB	09dH
	DB	0efH
	DB	07dH
	DB	0efH
	DB	07eH
	DB	0f7H
	DB	07eH
	DB	0f7H
	DB	09dH
	DB	0efH
	DB	07eH
	DB	0f7H
	DB	07eH
	DB	0f7H
	DB	09dH
	DB	0efH
	DB	07dH
	DB	0efH
	DB	07eH
	DB	0f7H
	DB	09dH
	DB	0efH
	DB	07dH
	DB	0efH
	DB	07eH
	DB	0f7H
	DB	09dH
	DB	0efH
	DB	07eH
	DB	0f7H
	DB	07eH
	DB	0f7H
	DB	07dH
	DB	0efH
	DB	09eH
	DB	0f7H
	DB	07dH
	DB	0efH
	DB	07dH
	DB	0efH
	DB	07eH
	DB	0f7H
	DB	07dH
	DB	0efH
	DB	07dH
	DB	0efH
	DB	07eH
	DB	0f7H
	DB	07dH
	DB	0efH
	DB	09eH
	DB	0f7H
	DB	07dH
	DB	0efH
	DB	07dH
	DB	0efH
	DB	07eH
	DB	0f7H
	DB	09dH
	DB	0efH
	DB	07eH
	DB	0f7H
	DB	07eH
	DB	0f7H
	DB	07dH
	DB	0efH
	DB	07eH
	DB	0f7H
	DB	09dH
	DB	0efH
	DB	07dH
	DB	0efH
	DB	07eH
	DB	0f7H
	DB	07dH
	DB	0efH
	DB	09eH
	DB	0f7H
	DB	07eH
	DB	0f7H
	DB	09dH
	DB	0efH
	DB	07eH
	DB	0f7H
	DB	09eH
	DB	0f7H
	DB	09dH
	DB	0efH
	DB	07eH
	DB	0f7H
	DB	07eH
	DB	0f7H
	DB	07dH
	DB	0efH
	DB	09dH
	DB	0efH
	DB	07eH
	DB	0f7H
	DB	07dH
	DB	0efH
	DB	09eH
	DB	0f7H
	DB	07eH
	DB	0f7H
	DB	07dH
	DB	0efH
	DB	09eH
	DB	0f7H
	DB	07eH
	DB	0f7H
	DB	07eH
	DB	0f7H
	DB	07dH
	DB	0efH
	DB	07eH
	DB	0f7H
	DB	07eH
	DB	0f7H
	DB	07eH
	DB	0f7H
	DB	07eH
	DB	0f7H
	DB	09eH
	DB	0f7H
	DB	07eH
	DB	0f7H
	DB	07dH
	DB	0efH
	DB	07eH
	DB	0f7H
	DB	09dH
	DB	0efH
	DB	07eH
	DB	0f7H
	DB	07eH
	DB	0f7H
	DB	07eH
	DB	0f7H
	DB	09eH
	DB	0f7H
	DB	07eH
	DB	0f7H
	DB	09eH
	DB	0f7H
	DB	07eH
	DB	0f7H
	DB	07dH
	DB	0efH
	DB	07eH
	DB	0f7H
	DB	07eH
	DB	0f7H
	DB	07dH
	DB	0efH
	DB	07eH
	DB	0f7H
	DB	09eH
	DB	0f7H
	DB	07eH
	DB	0f7H
	DB	07dH
	DB	0efH
	DB	07eH
	DB	0f7H
	DB	09eH
	DB	0f7H
	DB	07dH
	DB	0efH
	DB	07eH
	DB	0f7H
	DB	07eH
	DB	0f7H
	DB	07dH
	DB	0efH
	DB	07eH
	DB	0f7H
	DB	07eH
	DB	0f7H
	DB	07dH
	DB	0efH
	DB	09eH
	DB	0f7H
	DB	07eH
	DB	0f7H
	DB	07eH
	DB	0f7H
	DB	07eH
	DB	0f7H
	DB	07dH
	DB	0efH
	DB	07eH
	DB	0f7H
	DB	07eH
	DB	0f7H
	DB	09dH
	DB	0efH
	DB	07eH
	DB	0f7H
	DB	07eH
	DB	0f7H
	DB	09eH
	DB	0f7H
	DB	07dH
	DB	0efH
	DB	07eH
	DB	0f7H
	DB	07dH
	DB	0efH
	DB	07eH
	DB	0f7H
	DB	07dH
	DB	0efH
	DB	07eH
	DB	0f7H
	DB	09eH
	DB	0f7H
	DB	07dH
	DB	0efH
	DB	07eH
	DB	0f7H
	DB	07eH
	DB	0f7H
	DB	07dH
	DB	0efH
	DB	07eH
	DB	0f7H
	DB	07eH
	DB	0f7H
	DB	07dH
	DB	0efH
	DB	07eH
	DB	0f7H
	DB	09eH
	DB	0f7H
	DB	07dH
	DB	0efH
	DB	07eH
	DB	0f7H
	DB	07eH
	DB	0f7H
	DB	07dH
	DB	0efH
	DB	07eH
	DB	0f7H
	DB	07eH
	DB	0f7H
	DB	07dH
	DB	0efH
	DB	07eH
	DB	0f7H
	DB	09eH
	DB	0f7H
	DB	07dH
	DB	0efH
	DB	07eH
	DB	0f7H
	DB	07eH
	DB	0f7H
	DB	07eH
	DB	0f7H
	DB	07eH
	DB	0f7H
	DB	07eH
	DB	0f7H
	DB	07dH
	DB	0efH
	DB	07eH
	DB	0f7H
	DB	09eH
	DB	0f7H
	DB	07dH
	DB	0efH
	DB	07eH
	DB	0f7H
	DB	09dH
	DB	0efH
	DB	07eH
	DB	0f7H
	DB	07eH
	DB	0f7H
	DB	09eH
	DB	0f7H
	DB	07dH
	DB	0efH
	DB	07eH
	DB	0f7H
	DB	07eH
	DB	0f7H
	DB	07dH
	DB	0efH
	DB	07eH
	DB	0f7H
	DB	07eH
	DB	0f7H
	DB	07dH
	DB	0efH
	DB	07eH
	DB	0f7H
	DB	07eH
	DB	0f7H
	DB	07dH
	DB	0efH
	DB	07eH
	DB	0f7H
	DB	09eH
	DB	0f7H
	DB	07eH
	DB	0f7H
	DB	07dH
	DB	0efH
	DB	09eH
	DB	0f7H
	DB	07eH
	DB	0f7H
	DB	07eH
	DB	0f7H
	DB	09eH
	DB	0f7H
	DB	07eH
	DB	0f7H
	DB	07dH
	DB	0efH
	DB	07eH
	DB	0f7H
	DB	07eH
	DB	0f7H
	DB	09dH
	DB	0efH
	DB	07eH
	DB	0f7H
	DB	07eH
	DB	0f7H
	DB	07eH
	DB	0f7H
	DB	09eH
	DB	0f7H
	DB	07dH
	DB	0efH
	DB	07eH
	DB	0f7H
	DB	07dH
	DB	0efH
	DB	07eH
	DB	0f7H
	DB	07eH
	DB	0f7H
	DB	07dH
	DB	0efH
	DB	07eH
	DB	0f7H
	DB	07eH
	DB	0f7H
	DB	07dH
	DB	0efH
	DB	07eH
	DB	0f7H
	DB	09eH
	DB	0f7H
	DB	07dH
	DB	0efH
	DB	07eH
	DB	0f7H
	DB	09eH
	DB	0f7H
	DB	07eH
	DB	0f7H
	DB	09eH
	DB	0f7H
	DB	07dH
	DB	0efH
	DB	07eH
	DB	0f7H
	DB	09eH
	DB	0f7H
	DB	07eH
	DB	0f7H
	DB	07dH
	DB	0efH
	DB	07eH
	DB	0f7H
	DB	07eH
	DB	0f7H
	DB	07dH
	DB	0efH
	DB	07eH
	DB	0f7H
	DB	09eH
	DB	0f7H
	DB	07eH
	DB	0f7H
	DB	07dH
	DB	0efH
	DB	07eH
	DB	0f7H
	DB	07eH
	DB	0f7H
	DB	07dH
	DB	0efH
	DB	07eH
	DB	0f7H
	DB	09eH
	DB	0f7H
	DB	07dH
	DB	0efH
	DB	07dH
	DB	0efH
	DB	07eH
	DB	0f7H
	DB	07eH
	DB	0f7H
	DB	09dH
	DB	0efH
	DB	07eH
	DB	0f7H
	DB	07eH
	DB	0f7H
	DB	09dH
	DB	0efH
	DB	07eH
	DB	0f7H
	DB	07eH
	DB	0f7H
	DB	09dH
	DB	0efH
	DB	07eH
	DB	0f7H
	DB	09eH
	DB	0f7H
	DB	07dH
	DB	0efH
	DB	09eH
	DB	0f7H
	DB	09eH
	DB	0f7H
	DB	07dH
	DB	0efH
	DB	09eH
	DB	0f7H
	DB	07eH
	DB	0f7H
	DB	09dH
	DB	0efH
	DB	07eH
	DB	0f7H
	DB	07dH
	DB	0efH
	DB	07eH
	DB	0f7H
	DB	09eH
	DB	0f7H
	DB	07dH
	DB	0efH
	DB	07eH
	DB	0f7H
	DB	07eH
	DB	0f7H
	DB	07dH
	DB	0efH
	DB	07eH
	DB	0f7H
	DB	07dH
	DB	0efH
	DB	09eH
	DB	0f7H
	DB	07eH
	DB	0f7H
	DB	07dH
	DB	0efH
	DB	09eH
	DB	0f7H
	DB	07eH
	DB	0f7H
	DB	07dH
	DB	0efH
	DB	07eH
	DB	0f7H
	DB	09eH
	DB	0f7H
	DB	07dH
	DB	0efH
	DB	07eH
	DB	0f7H
	DB	09eH
	DB	0f7H
	DB	07dH
	DB	0efH
	DB	09eH
	DB	0f7H
	DB	07dH
	DB	0efH
	DB	09eH
	DB	0f7H
	DB	07eH
	DB	0f7H
	DB	07eH
	DB	0f7H
	DB	09eH
	DB	0f7H
	DB	07eH
	DB	0f7H
	DB	07eH
	DB	0f7H
	DB	09eH
	DB	0f7H
	DB	07dH
	DB	0efH
	DB	09eH
	DB	0f7H
	DB	07eH
	DB	0f7H
	DB	07dH
	DB	0efH
	DB	07eH
	DB	0f7H
	DB	07eH
	DB	0f7H
	DB	09dH
	DB	0efH
	DB	07eH
	DB	0f7H
	DB	07eH
	DB	0f7H
	DB	07dH
	DB	0efH
	DB	07eH
	DB	0f7H
	DB	07eH
	DB	0f7H
	DB	07dH
	DB	0efH
	DB	07eH
	DB	0f7H
	DB	07eH
	DB	0f7H
	DB	07eH
	DB	0f7H
	DB	07dH
	DB	0efH
	DB	07eH
	DB	0f7H
	DB	07eH
	DB	0f7H
	DB	07dH
	DB	0efH
	DB	07eH
	DB	0f7H
	DB	09dH
	DB	0efH
	DB	07eH
	DB	0f7H
	DB	07eH
	DB	0f7H
	DB	07dH
	DB	0efH
	DB	07eH
	DB	0f7H
	DB	07dH
	DB	0efH
	DB	07eH
	DB	0f7H
	DB	09eH
	DB	0f7H
	DB	07eH
	DB	0f7H
	DB	07dH
	DB	0efH
	DB	09eH
	DB	0f7H
	DB	07eH
	DB	0f7H
	DB	07eH
	DB	0f7H
	DB	07dH
	DB	0efH
	DB	07eH
	DB	0f7H
	DB	07dH
	DB	0efH
	DB	09eH
	DB	0f7H
	DB	07eH
	DB	0f7H
	DB	07dH
	DB	0efH
	DB	09eH
	DB	0f7H
	DB	07eH
	DB	0f7H
	DB	07dH
	DB	0efH
	DB	07eH
	DB	0f7H
	DB	07eH
	DB	0f7H
	DB	09dH
	DB	0efH
	DB	07eH
	DB	0f7H
	DB	07eH
	DB	0f7H
	DB	07eH
	DB	0f7H
	DB	07dH
	DB	0efH
	DB	07eH
	DB	0f7H
	DB	07eH
	DB	0f7H
	DB	07eH
	DB	0f7H
	DB	07eH
	DB	0f7H
	DB	07eH
	DB	0f7H
	DB	07eH
	DB	0f7H
	DB	09eH
	DB	0f7H
	DB	07eH
	DB	0f7H
	DB	07eH
	DB	0f7H
	DB	07dH
	DB	0efH
	DB	09eH
	DB	0f7H
	DB	07eH
	DB	0f7H
	DB	07eH
	DB	0f7H
	DB	09eH
	DB	0f7H
	DB	07eH
	DB	0f7H
	DB	07dH
	DB	0efH
	DB	07eH
	DB	0f7H
	DB	09eH
	DB	0f7H
	DB	07dH
	DB	0efH
	DB	07eH
	DB	0f7H
	DB	09eH
	DB	0f7H
	DB	07eH
	DB	0f7H
	DB	07dH
	DB	0efH
	DB	07eH
	DB	0f7H
	DB	09eH
	DB	0f7H
	DB	07dH
	DB	0efH
	DB	07eH
	DB	0f7H
	DB	09eH
	DB	0f7H
	DB	07dH
	DB	0efH
	DB	07eH
	DB	0f7H
	DB	07eH
	DB	0f7H
	DB	07dH
	DB	0efH
	DB	07eH
	DB	0f7H
	DB	09eH
	DB	0f7H
	DB	07dH
	DB	0efH
	DB	07eH
	DB	0f7H
	DB	07eH
	DB	0f7H
	DB	07dH
	DB	0efH
	DB	07dH
	DB	0efH
	DB	09eH
	DB	0f7H
	DB	07eH
	DB	0f7H
	DB	07dH
	DB	0efH
	DB	09eH
	DB	0f7H
	DB	07eH
	DB	0f7H
	DB	07dH
	DB	0efH
	DB	07eH
	DB	0f7H
	DB	07dH
	DB	0efH
	DB	07eH
	DB	0f7H
	DB	09eH
	DB	0f7H
	DB	07dH
	DB	0efH
	DB	07eH
	DB	0f7H
	DB	07eH
	DB	0f7H
	DB	07dH
	DB	0efH
	DB	07eH
	DB	0f7H
	DB	07eH
	DB	0f7H
	DB	09eH
	DB	0f7H
	DB	07eH
	DB	0f7H
	DB	09dH
	DB	0efH
	DB	09eH
	DB	0f7H
	DB	07eH
	DB	0f7H
	DB	07dH
	DB	0efH
	DB	07eH
	DB	0f7H
	DB	07eH
	DB	0f7H
	DB	09dH
	DB	0efH
	DB	07eH
	DB	0f7H
	DB	07eH
	DB	0f7H
	DB	09dH
	DB	0efH
	DB	07eH
	DB	0f7H
	DB	07eH
	DB	0f7H
	DB	07dH
	DB	0efH
	DB	07eH
	DB	0f7H
	DB	07eH
	DB	0f7H
	DB	07dH
	DB	0efH
	DB	09eH
	DB	0f7H
	DB	07eH
	DB	0f7H
	DB	07eH
	DB	0f7H
	DB	07dH
	DB	0efH
	DB	07eH
	DB	0f7H
	DB	07eH
	DB	0f7H
	DB	07dH
	DB	0efH
	DB	07eH
	DB	0f7H
	DB	07eH
	DB	0f7H
	DB	09dH
	DB	0efH
	DB	07eH
	DB	0f7H
	DB	07dH
	DB	0efH
	DB	07eH
	DB	0f7H
	DB	07dH
	DB	0efH
	DB	07eH
	DB	0f7H
	DB	07eH
	DB	0f7H
	DB	09eH
	DB	0f7H
	DB	07dH
	DB	0efH
	DB	07eH
	DB	0f7H
	DB	07eH
	DB	0f7H
	DB	07eH
	DB	0f7H
	DB	07dH
	DB	0efH
	DB	09dH
	DB	0efH
	DB	07eH
	DB	0f7H
	DB	07dH
	DB	0efH
	DB	09eH
	DB	0f7H
	DB	07eH
	DB	0f7H
	DB	07eH
	DB	0f7H
	DB	07dH
	DB	0efH
	DB	07eH
	DB	0f7H
	DB	07eH
	DB	0f7H
	DB	07dH
	DB	0efH
	DB	07eH
	DB	0f7H
	DB	09dH
	DB	0efH
	DB	07eH
	DB	0f7H
	DB	07eH
	DB	0f7H
	DB	09eH
	DB	0f7H
	DB	09dH
	DB	0efH
	DB	07eH
	DB	0f7H
	DB	09eH
	DB	0f7H
	DB	07eH
	DB	0f7H
	DB	07dH
	DB	0efH
	DB	07eH
	DB	0f7H
	DB	07eH
	DB	0f7H
	DB	07dH
	DB	0efH
	DB	09eH
	DB	0f7H
	DB	07eH
	DB	0f7H
	DB	07dH
	DB	0efH
	DB	07eH
	DB	0f7H
	DB	07eH
	DB	0f7H
	DB	07eH
	DB	0f7H
	DB	07dH
	DB	0efH
	DB	07eH
	DB	0f7H
	DB	07dH
	DB	0efH
	DB	07eH
	DB	0f7H
	DB	07eH
	DB	0f7H
	DB	07dH
	DB	0efH
	DB	07eH
	DB	0f7H
	DB	07eH
	DB	0f7H
	DB	07dH
	DB	0efH
	DB	09eH
	DB	0f7H
	DB	07dH
	DB	0efH
	DB	07eH
	DB	0f7H
	DB	07eH
	DB	0f7H
	DB	07dH
	DB	0efH
	DB	07eH
	DB	0f7H
	DB	07eH
	DB	0f7H
	DB	07dH
	DB	0efH
	DB	07eH
	DB	0f7H
	DB	07eH
	DB	0f7H
	DB	07dH
	DB	0efH
	DB	07eH
	DB	0f7H
	DB	07dH
	DB	0efH
	DB	09eH
	DB	0f7H
	DB	07eH
	DB	0f7H
	DB	07eH
	DB	0f7H
	DB	09eH
	DB	0f7H
	DB	07dH
	DB	0efH
	DB	07eH
	DB	0f7H
	DB	07dH
	DB	0efH
	DB	07eH
	DB	0f7H
	DB	07eH
	DB	0f7H
	DB	09dH
	DB	0efH
	DB	07eH
	DB	0f7H
	DB	07dH
	DB	0efH
	DB	07eH
	DB	0f7H
	DB	07eH
	DB	0f7H
	DB	07dH
	DB	0efH
	DB	07eH
	DB	0f7H
	DB	07eH
	DB	0f7H
	DB	09eH
	DB	0f7H
	DB	07dH
	DB	0efH
	DB	07eH
	DB	0f7H
	DB	07dH
	DB	0efH
	DB	09dH
	DB	0efH
	DB	07eH
	DB	0f7H
	DB	07eH
	DB	0f7H
	DB	07dH
	DB	0efH
	DB	07eH
	DB	0f7H
	DB	07dH
	DB	0efH
	DB	07eH
	DB	0f7H
	DB	07eH
	DB	0f7H
	DB	07eH
	DB	0f7H
	DB	07dH
	DB	0efH
	DB	07eH
	DB	0f7H
	DB	07eH
	DB	0f7H
	DB	09eH
	DB	0f7H
	DB	07dH
	DB	0efH
	DB	07eH
	DB	0f7H
	DB	07eH
	DB	0f7H
	DB	07dH
	DB	0efH
	DB	07eH
	DB	0f7H
	DB	07eH
	DB	0f7H
	DB	07eH
	DB	0f7H
	DB	07eH
	DB	0f7H
	DB	07eH
	DB	0f7H
	DB	07dH
	DB	0efH
	DB	07eH
	DB	0f7H
	DB	09dH
	DB	0efH
	DB	07eH
	DB	0f7H
	DB	07eH
	DB	0f7H
	DB	09dH
	DB	0efH
	DB	07eH
	DB	0f7H
	DB	07eH
	DB	0f7H
	DB	09eH
	DB	0f7H
	DB	07eH
	DB	0f7H
	DB	09eH
	DB	0f7H
	DB	07eH
	DB	0f7H
	DB	07eH
	DB	0f7H
	DB	07eH
	DB	0f7H
	DB	07eH
	DB	0f7H
	DB	07eH
	DB	0f7H
	DB	07eH
	DB	0f7H
	DB	07dH
	DB	0efH
	DB	07eH
	DB	0f7H
	DB	09dH
	DB	0efH
	DB	07eH
	DB	0f7H
	DB	07eH
	DB	0f7H
	DB	07dH
	DB	0efH
	DB	07eH
	DB	0f7H
	DB	09eH
	DB	0f7H
	DB	07dH
	DB	0efH
	DB	07eH
	DB	0f7H
	DB	07dH
	DB	0efH
	DB	09eH
	DB	0f7H
	DB	07dH
	DB	0efH
	DB	07dH
	DB	0efH
	DB	07eH
	DB	0f7H
	DB	07eH
	DB	0f7H
	DB	07dH
	DB	0efH
	DB	09eH
	DB	0f7H
	DB	07eH
	DB	0f7H
	DB	07eH
	DB	0f7H
	DB	07eH
	DB	0f7H
	DB	07dH
	DB	0efH
	DB	07eH
	DB	0f7H
	DB	07dH
	DB	0efH
	DB	07eH
	DB	0f7H
	DB	07dH
	DB	0efH
	DB	07eH
	DB	0f7H
	DB	07eH
	DB	0f7H
	DB	07eH
	DB	0f7H
	DB	09dH
	DB	0efH
	DB	07dH
	DB	0efH
	DB	07eH
	DB	0f7H
	DB	07dH
	DB	0efH
	DB	07eH
	DB	0f7H
	DB	09eH
	DB	0f7H
	DB	07eH
	DB	0f7H
	DB	07dH
	DB	0efH
	DB	07eH
	DB	0f7H
	DB	09dH
	DB	0efH
	DB	07dH
	DB	0efH
	DB	07eH
	DB	0f7H
	DB	07dH
	DB	0efH
	DB	09dH
	DB	0efH
	DB	07eH
	DB	0f7H
	DB	07eH
	DB	0f7H
	DB	09dH
	DB	0efH
	DB	07eH
	DB	0f7H
	DB	09eH
	DB	0f7H
	DB	07dH
	DB	0efH
	DB	07eH
	DB	0f7H
	DB	09eH
	DB	0f7H
	DB	07dH
	DB	0efH
	DB	07eH
	DB	0f7H
	DB	09eH
	DB	0f7H
	DB	07dH
	DB	0efH
	DB	07eH
	DB	0f7H
	DB	09eH
	DB	0f7H
	DB	07dH
	DB	0efH
	DB	09eH
	DB	0f7H
	DB	09dH
	DB	0efH
	DB	07eH
	DB	0f7H
	DB	07eH
	DB	0f7H
	DB	09dH
	DB	0efH
	DB	07dH
	DB	0efH
	DB	07eH
	DB	0f7H
	DB	09eH
	DB	0f7H
	DB	07dH
	DB	0efH
	DB	07eH
	DB	0f7H
	DB	07dH
	DB	0efH
	DB	07eH
	DB	0f7H
	DB	09eH
	DB	0f7H
	DB	07dH
	DB	0efH
	DB	07eH
	DB	0f7H
	DB	07eH
	DB	0f7H
	DB	09dH
	DB	0efH
	DB	07eH
	DB	0f7H
	DB	07eH
	DB	0f7H
	DB	09dH
	DB	0efH
	DB	07eH
	DB	0f7H
	DB	07eH
	DB	0f7H
	DB	07dH
	DB	0efH
	DB	09eH
	DB	0f7H
	DB	07eH
	DB	0f7H
	DB	09dH
	DB	0efH
	DB	07eH
	DB	0f7H
	DB	09dH
	DB	0efH
	DB	07eH
	DB	0f7H
	DB	07eH
	DB	0f7H
	DB	07dH
	DB	0efH
	DB	09eH
	DB	0f7H
	DB	07eH
	DB	0f7H
	DB	09eH
	DB	0f7H
	DB	07dH
	DB	0efH
	DB	09eH
	DB	0f7H
	DB	09eH
	DB	0f7H
	DB	07dH
	DB	0efH
	DB	07eH
	DB	0f7H
	DB	07eH
	DB	0f7H
	DB	09dH
	DB	0efH
	DB	07eH
	DB	0f7H
	DB	07eH
	DB	0f7H
	DB	09dH
	DB	0efH
	DB	07eH
	DB	0f7H
	DB	09eH
	DB	0f7H
	DB	07dH
	DB	0efH
	DB	07eH
	DB	0f7H
	DB	07eH
	DB	0f7H
	DB	07dH
	DB	0efH
	DB	09eH
	DB	0f7H
	DB	07eH
	DB	0f7H
	DB	07dH
	DB	0efH
	DB	09eH
	DB	0f7H
	DB	07eH
	DB	0f7H
	DB	07dH
	DB	0efH
	DB	09eH
	DB	0f7H
	DB	07eH
	DB	0f7H
	DB	09dH
	DB	0efH
	DB	07eH
	DB	0f7H
	DB	09eH
	DB	0f7H
	DB	07dH
	DB	0efH
	DB	09dH
	DB	0efH
	DB	07eH
	DB	0f7H
	DB	07eH
	DB	0f7H
	DB	09dH
	DB	0efH
	DB	07eH
	DB	0f7H
	DB	07dH
	DB	0efH
	DB	07eH
	DB	0f7H
	DB	07dH
	DB	0efH
	DB	07eH
	DB	0f7H
	DB	09dH
	DB	0efH
	DB	07eH
	DB	0f7H
	DB	07eH
	DB	0f7H
	DB	07dH
	DB	0efH
	DB	09eH
	DB	0f7H
	DB	07eH
	DB	0f7H
	DB	07dH
	DB	0efH
	DB	07eH
	DB	0f7H
	DB	07dH
	DB	0efH
	DB	09eH
	DB	0f7H
	DB	07eH
	DB	0f7H
	DB	07dH
	DB	0efH
	DB	09eH
	DB	0f7H
	DB	07eH
	DB	0f7H
	DB	09dH
	DB	0efH
	DB	09eH
	DB	0f7H
	DB	07dH
	DB	0efH
	DB	09eH
	DB	0f7H
	DB	07dH
	DB	0efH
	DB	07eH
	DB	0f7H
	DB	09eH
	DB	0f7H
	DB	07dH
	DB	0efH
	DB	07eH
	DB	0f7H
	DB	07eH
	DB	0f7H
	DB	07dH
	DB	0efH
	DB	09eH
	DB	0f7H
	DB	07eH
	DB	0f7H
	DB	07dH
	DB	0efH
	DB	09eH
	DB	0f7H
	DB	07eH
	DB	0f7H
	DB	07dH
	DB	0efH
	DB	09eH
	DB	0f7H
	DB	07eH
	DB	0f7H
	DB	09dH
	DB	0efH
	DB	07eH
	DB	0f7H
	DB	07eH
	DB	0f7H
	DB	07dH
	DB	0efH
	DB	07eH
	DB	0f7H
	DB	09eH
	DB	0f7H
	DB	09dH
	DB	0efH
	DB	07eH
	DB	0f7H
	DB	07eH
	DB	0f7H
	DB	09eH
	DB	0f7H
	DB	07eH
	DB	0f7H
	DB	07eH
	DB	0f7H
	DB	09dH
	DB	0efH
	DB	07eH
	DB	0f7H
	DB	07eH
	DB	0f7H
	DB	07dH
	DB	0efH
	DB	07dH
	DB	0efH
	DB	09eH
	DB	0f7H
	DB	07eH
	DB	0f7H
	DB	07dH
	DB	0efH
	DB	07eH
	DB	0f7H
	DB	07eH
	DB	0f7H
	DB	07dH
	DB	0efH
	DB	07eH
	DB	0f7H
	DB	07eH
	DB	0f7H
	DB	07dH
	DB	0efH
	DB	07eH
	DB	0f7H
	DB	07eH
	DB	0f7H
	DB	07dH
	DB	0efH
	DB	09eH
	DB	0f7H
	DB	07eH
	DB	0f7H
	DB	07dH
	DB	0efH
	DB	09eH
	DB	0f7H
	DB	07dH
	DB	0efH
	DB	07eH
	DB	0f7H
	DB	09eH
	DB	0f7H
	DB	07dH
	DB	0efH
	DB	07eH
	DB	0f7H
	DB	09eH
	DB	0f7H
	DB	07dH
	DB	0efH
	DB	07eH
	DB	0f7H
	DB	09dH
	DB	0efH
	DB	07eH
	DB	0f7H
	DB	07eH
	DB	0f7H
	DB	09dH
	DB	0efH
	DB	07eH
	DB	0f7H
	DB	07dH
	DB	0efH
	DB	09eH
	DB	0f7H
	DB	07dH
	DB	0efH
	DB	07eH
	DB	0f7H
	DB	07eH
	DB	0f7H
	DB	07dH
	DB	0efH
	DB	09eH
	DB	0f7H
	DB	07eH
	DB	0f7H
	DB	07dH
	DB	0efH
	DB	09eH
	DB	0f7H
	DB	07dH
	DB	0efH
	DB	07dH
	DB	0efH
	DB	09eH
	DB	0f7H
	DB	07dH
	DB	0efH
	DB	07eH
	DB	0f7H
	DB	07eH
	DB	0f7H
	DB	07dH
	DB	0efH
	DB	09eH
	DB	0f7H
	DB	07eH
	DB	0f7H
	DB	09dH
	DB	0efH
	DB	07eH
	DB	0f7H
	DB	07eH
	DB	0f7H
	DB	07dH
	DB	0efH
	DB	09eH
	DB	0f7H
	DB	07eH
	DB	0f7H
	DB	09dH
	DB	0efH
	DB	09eH
	DB	0f7H
	DB	07eH
	DB	0f7H
	DB	09dH
	DB	0efH
	DB	07dH
	DB	0efH
	DB	09eH
	DB	0f7H
	DB	07eH
	DB	0f7H
	DB	09dH
	DB	0efH
	DB	07eH
	DB	0f7H
	DB	07dH
	DB	0efH
	DB	09eH
	DB	0f7H
	DB	07eH
	DB	0f7H
	DB	07dH
	DB	0efH
	DB	09eH
	DB	0f7H
	DB	07eH
	DB	0f7H
	DB	09dH
	DB	0efH
	DB	07eH
	DB	0f7H
	DB	07eH
	DB	0f7H
	DB	09dH
	DB	0efH
	DB	07dH
	DB	0efH
	DB	07eH
	DB	0f7H
	DB	09eH
	DB	0f7H
	DB	07dH
	DB	0efH
	DB	07eH
	DB	0f7H
	DB	09eH
	DB	0f7H
	DB	07eH
	DB	0f7H
	DB	07dH
	DB	0efH
	DB	09eH
	DB	0f7H
	DB	07dH
	DB	0efH
	DB	07eH
	DB	0f7H
	DB	09eH
	DB	0f7H
	DB	07dH
	DB	0efH
	DB	07eH
	DB	0f7H
	DB	09eH
	DB	0f7H
	DB	07dH
	DB	0efH
	DB	07eH
	DB	0f7H
	DB	07eH
	DB	0f7H
	DB	09dH
	DB	0efH
	DB	07eH
	DB	0f7H
	DB	07eH
	DB	0f7H
	DB	09dH
	DB	0efH
	DB	09eH
	DB	0f7H
	DB	07dH
	DB	0efH
	DB	09dH
	DB	0efH
	DB	09eH
	DB	0f7H
	DB	07dH
	DB	0efH
	DB	07dH
	DB	0efH
	DB	07eH
	DB	0f7H
	DB	09dH
	DB	0efH
	DB	07eH
	DB	0f7H
	DB	07eH
	DB	0f7H
	DB	07dH
	DB	0efH
	DB	09dH
	DB	0efH
	DB	07eH
	DB	0f7H
	DB	07dH
	DB	0efH
	DB	09eH
	DB	0f7H
	DB	07dH
	DB	0efH
	DB	09eH
	DB	0f7H
	DB	07dH
	DB	0efH
	DB	07eH
	DB	0f7H
	DB	07eH
	DB	0f7H
	DB	09dH
	DB	0efH
	DB	07eH
	DB	0f7H
	DB	07eH
	DB	0f7H
	DB	09dH
	DB	0efH
	DB	07eH
	DB	0f7H
	DB	07eH
	DB	0f7H
	DB	07dH
	DB	0efH
	DB	07eH
	DB	0f7H
	DB	07dH
	DB	0efH
	DB	09eH
	DB	0f7H
	DB	09eH
	DB	0f7H
	DB	07dH
	DB	0efH
	DB	07eH
	DB	0f7H
	DB	07eH
	DB	0f7H
	DB	07dH
	DB	0efH
	DB	09eH
	DB	0f7H
	DB	07eH
	DB	0f7H
	DB	07dH
	DB	0efH
	DB	07eH
	DB	0f7H
	DB	07eH
	DB	0f7H
	DB	09dH
	DB	0efH
	DB	07eH
	DB	0f7H
	DB	07dH
	DB	0efH
	DB	09eH
	DB	0f7H
	DB	07eH
	DB	0f7H
	DB	07dH
	DB	0efH
	DB	09eH
	DB	0f7H
	DB	07eH
	DB	0f7H
	DB	07dH
	DB	0efH
	DB	09eH
	DB	0f7H
	DB	07dH
	DB	0efH
	DB	07eH
	DB	0f7H
	DB	09eH
	DB	0f7H
	DB	07dH
	DB	0efH
	DB	07eH
	DB	0f7H
	DB	07eH
	DB	0f7H
	DB	07dH
	DB	0efH
	DB	07eH
	DB	0f7H
	DB	07eH
	DB	0f7H
	DB	09dH
	DB	0efH
	DB	07dH
	DB	0efH
	DB	09eH
	DB	0f7H
	DB	07eH
	DB	0f7H
	DB	07dH
	DB	0efH
	DB	07eH
	DB	0f7H
	DB	09dH
	DB	0efH
	DB	07eH
	DB	0f7H
	DB	07eH
	DB	0f7H
	DB	09dH
	DB	0efH
	DB	07dH
	DB	0efH
	DB	09eH
	DB	0f7H
	DB	07eH
	DB	0f7H
	DB	07dH
	DB	0efH
	DB	07eH
	DB	0f7H
	DB	09eH
	DB	0f7H
	DB	07dH
	DB	0efH
	DB	07eH
	DB	0f7H
	DB	09eH
	DB	0f7H
	DB	07dH
	DB	0efH
	DB	09eH
	DB	0f7H
	DB	07eH
	DB	0f7H
	DB	07dH
	DB	0efH
	DB	07eH
	DB	0f7H
	DB	09eH
	DB	0f7H
	DB	07eH
	DB	0f7H
	DB	09dH
	DB	0efH
	DB	07eH
	DB	0f7H
	DB	07dH
	DB	0efH
	DB	09eH
	DB	0f7H
	DB	07eH
	DB	0f7H
	DB	07dH
	DB	0efH
	DB	09eH
	DB	0f7H
	DB	09eH
	DB	0f7H
	DB	07dH
	DB	0efH
	DB	07eH
	DB	0f7H
	DB	07eH
	DB	0f7H
	DB	09eH
	DB	0f7H
	DB	07dH
	DB	0efH
	DB	07eH
	DB	0f7H
	DB	09eH
	DB	0f7H
	DB	07dH
	DB	0efH
	DB	09eH
	DB	0f7H
	DB	09eH
	DB	0f7H
	DB	07dH
	DB	0efH
	DB	07eH
	DB	0f7H
	DB	09eH
	DB	0f7H
	DB	07dH
	DB	0efH
	DB	07dH
	DB	0efH
	DB	07eH
	DB	0f7H
	DB	07eH
	DB	0f7H
	DB	07dH
	DB	0efH
	DB	07eH
	DB	0f7H
	DB	07eH
	DB	0f7H
	DB	09dH
	DB	0efH
	DB	07eH
	DB	0f7H
	DB	07eH
	DB	0f7H
	DB	09eH
	DB	0f7H
	DB	07dH
	DB	0efH
	DB	07eH
	DB	0f7H
	DB	09eH
	DB	0f7H
	DB	07dH
	DB	0efH
	DB	09eH
	DB	0f7H
	DB	09eH
	DB	0f7H
	DB	07dH
	DB	0efH
	DB	09eH
	DB	0f7H
	DB	07eH
	DB	0f7H
	DB	09dH
	DB	0efH
	DB	07eH
	DB	0f7H
	DB	07dH
	DB	0efH
	DB	09eH
	DB	0f7H
	DB	07eH
	DB	0f7H
	DB	07dH
	DB	0efH
	DB	09eH
	DB	0f7H
	DB	07eH
	DB	0f7H
	DB	07dH
	DB	0efH
	DB	09eH
	DB	0f7H
	DB	07dH
	DB	0efH
	DB	09eH
	DB	0f7H
	DB	07eH
	DB	0f7H
	DB	09dH
	DB	0efH
	DB	07eH
	DB	0f7H
	DB	07eH
	DB	0f7H
	DB	09dH
	DB	0efH
	DB	09eH
	DB	0f7H
	DB	07eH
	DB	0f7H
	DB	07dH
	DB	0efH
	DB	07dH
	DB	0efH
	DB	09eH
	DB	0f7H
	DB	07dH
	DB	0efH
	DB	07eH
	DB	0f7H
	DB	09eH
	DB	0f7H
	DB	07dH
	DB	0efH
	DB	09eH
	DB	0f7H
	DB	07eH
	DB	0f7H
	DB	07dH
	DB	0efH
	DB	09eH
	DB	0f7H
	DB	07eH
	DB	0f7H
	DB	07dH
	DB	0efH
	DB	09eH
	DB	0f7H
	DB	09dH
	DB	0efH
	DB	07eH
	DB	0f7H
	DB	07eH
	DB	0f7H
	DB	09dH
	DB	0efH
	DB	07eH
	DB	0f7H
	DB	07eH
	DB	0f7H
	DB	09eH
	DB	0f7H
	DB	07eH
	DB	0f7H
	DB	07dH
	DB	0efH
	DB	09eH
	DB	0f7H
	DB	07eH
	DB	0f7H
	DB	09dH
	DB	0efH
	DB	07eH
	DB	0f7H
	DB	07eH
	DB	0f7H
	DB	09dH
	DB	0efH
	DB	09eH
	DB	0f7H
	DB	07eH
	DB	0f7H
	DB	09eH
	DB	0f7H
	DB	07dH
	DB	0efH
	DB	07eH
	DB	0f7H
	DB	07eH
	DB	0f7H
	DB	09dH
	DB	0efH
	DB	07eH
	DB	0f7H
	DB	07dH
	DB	0efH
	DB	09eH
	DB	0f7H
	DB	09dH
	DB	0efH
	DB	07eH
	DB	0f7H
	DB	09dH
	DB	0efH
	DB	07eH
	DB	0f7H
	DB	09eH
	DB	0f7H
	DB	07eH
	DB	0f7H
	DB	07dH
	DB	0efH
	DB	07eH
	DB	0f7H
	DB	07dH
	DB	0efH
	DB	07eH
	DB	0f7H
	DB	07eH
	DB	0f7H
	DB	07dH
	DB	0efH
	DB	07eH
	DB	0f7H
	DB	07dH
	DB	0efH
	DB	09dH
	DB	0efH
	DB	07eH
	DB	0f7H
	DB	09dH
	DB	0efH
	DB	09dH
	DB	0efH
	DB	07eH
	DB	0f7H
	DB	07dH
	DB	0efH
	DB	09eH
	DB	0f7H
	DB	09eH
	DB	0f7H
	DB	07dH
	DB	0efH
	DB	07eH
	DB	0f7H
	DB	07eH
	DB	0f7H
	DB	09dH
	DB	0efH
	DB	07eH
	DB	0f7H
	DB	07eH
	DB	0f7H
	DB	07eH
	DB	0f7H
	DB	07eH
	DB	0f7H
	DB	09dH
	DB	0efH
	DB	07eH
	DB	0f7H
	DB	07eH
	DB	0f7H
	DB	07eH
	DB	0f7H
	DB	07eH
	DB	0f7H
	DB	07dH
	DB	0efH
	DB	07eH
	DB	0f7H
	DB	07eH
	DB	0f7H
	DB	09dH
	DB	0efH
	DB	07dH
	DB	0efH
	DB	07eH
	DB	0f7H
	DB	09eH
	DB	0f7H
	DB	07dH
	DB	0efH
	DB	09eH
	DB	0f7H
	DB	07eH
	DB	0f7H
	DB	09eH
	DB	0f7H
	DB	07dH
	DB	0efH
	DB	07eH
	DB	0f7H
	DB	07dH
	DB	0efH
	DB	07dH
	DB	0efH
	DB	07eH
	DB	0f7H
	DB	09eH
	DB	0f7H
	DB	07eH
	DB	0f7H
	DB	09dH
	DB	0efH
	DB	07dH
	DB	0efH
	DB	07dH
	DB	0efH
	DB	07eH
	DB	0f7H
	DB	09dH
	DB	0efH
	DB	07eH
	DB	0f7H
	DB	07eH
	DB	0f7H
	DB	07eH
	DB	0f7H
	DB	09dH
	DB	0efH
	DB	07eH
	DB	0f7H
	DB	07eH
	DB	0f7H
	DB	07dH
	DB	0efH
	DB	07eH
	DB	0f7H
	DB	07dH
	DB	0efH
	DB	07eH
	DB	0f7H
	DB	09dH
	DB	0efH
	DB	07eH
	DB	0f7H
	DB	07eH
	DB	0f7H
	DB	07dH
	DB	0efH
	DB	07eH
	DB	0f7H
	DB	07dH
	DB	0efH
	DB	09eH
	DB	0f7H
	DB	07eH
	DB	0f7H
	DB	07dH
	DB	0efH
	DB	07eH
	DB	0f7H
	DB	07dH
	DB	0efH
	DB	07eH
	DB	0f7H
	DB	07eH
	DB	0f7H
	DB	07dH
	DB	0efH
	DB	07eH
	DB	0f7H
	DB	07eH
	DB	0f7H
	DB	07dH
	DB	0efH
	DB	07eH
	DB	0f7H
	DB	09eH
	DB	0f7H
	DB	07dH
	DB	0efH
	DB	07eH
	DB	0f7H
	DB	09eH
	DB	0f7H
	DB	07dH
	DB	0efH
	DB	07eH
	DB	0f7H
	DB	07dH
	DB	0efH
	DB	09dH
	DB	0efH
	DB	07eH
	DB	0f7H
	DB	07eH
	DB	0f7H
	DB	09dH
	DB	0efH
	DB	07eH
	DB	0f7H
	DB	07eH
	DB	0f7H
	DB	09dH
	DB	0efH
	DB	07eH
	DB	0f7H
	DB	07dH
	DB	0efH
	DB	09eH
	DB	0f7H
	DB	07eH
	DB	0f7H
	DB	07dH
	DB	0efH
	DB	07eH
	DB	0f7H
	DB	07eH
	DB	0f7H
	DB	07dH
	DB	0efH
	DB	09eH
	DB	0f7H
	DB	07dH
	DB	0efH
	DB	07eH
	DB	0f7H
	DB	07dH
	DB	0efH
	DB	07eH
	DB	0f7H
	DB	07dH
	DB	0efH
	DB	07eH
	DB	0f7H
	DB	07dH
	DB	0efH
	DB	07eH
	DB	0f7H
	DB	09eH
	DB	0f7H
	DB	07dH
	DB	0efH
	DB	07eH
	DB	0f7H
	DB	07eH
	DB	0f7H
	DB	09dH
	DB	0efH
	DB	07dH
	DB	0efH
	DB	07eH
	DB	0f7H
	DB	09dH
	DB	0efH
	DB	07dH
	DB	0efH
	DB	07eH
	DB	0f7H
	DB	09dH
	DB	0efH
	DB	07eH
	DB	0f7H
	DB	07eH
	DB	0f7H
	DB	07dH
	DB	0efH
	DB	07eH
	DB	0f7H
	DB	07dH
	DB	0efH
	DB	07dH
	DB	0efH
	DB	07eH
	DB	0f7H
	DB	07eH
	DB	0f7H
	DB	07dH
	DB	0efH
	DB	09eH
	DB	0f7H
	DB	07dH
	DB	0efH
	DB	07eH
	DB	0f7H
	DB	07eH
	DB	0f7H
	DB	09dH
	DB	0efH
	DB	07eH
	DB	0f7H
	DB	07eH
	DB	0f7H
	DB	09dH
	DB	0efH
	DB	07eH
	DB	0f7H
	DB	07eH
	DB	0f7H
	DB	07dH
	DB	0efH
	DB	09eH
	DB	0f7H
	DB	07eH
	DB	0f7H
	DB	07dH
	DB	0efH
	DB	07eH
	DB	0f7H
	DB	09dH
	DB	0efH
	DB	07eH
	DB	0f7H
	DB	07dH
	DB	0efH
	DB	09eH
	DB	0f7H
	DB	07dH
	DB	0efH
	DB	07eH
	DB	0f7H
	DB	09eH
	DB	0f7H
	DB	07dH
	DB	0efH
	DB	07dH
	DB	0efH
	DB	07eH
	DB	0f7H
	DB	07eH
	DB	0f7H
	DB	07dH
	DB	0efH
	DB	07eH
	DB	0f7H
	DB	07eH
	DB	0f7H
	DB	07dH
	DB	0efH
	DB	07eH
	DB	0f7H
	DB	07eH
	DB	0f7H
	DB	09dH
	DB	0efH
	DB	07eH
	DB	0f7H
	DB	07dH
	DB	0efH
	DB	07eH
	DB	0f7H
	DB	09eH
	DB	0f7H
	DB	07dH
	DB	0efH
	DB	07dH
	DB	0efH
	DB	07eH
	DB	0f7H
	DB	07dH
	DB	0efH
	DB	07eH
	DB	0f7H
	DB	07dH
	DB	0efH
	DB	07eH
	DB	0f7H
	DB	07dH
	DB	0efH
	DB	07eH
	DB	0f7H
	DB	09dH
	DB	0efH
	DB	07eH
	DB	0f7H
	DB	07dH
	DB	0efH
	DB	09eH
	DB	0f7H
	DB	07dH
	DB	0efH
	DB	07dH
	DB	0efH
	DB	07eH
	DB	0f7H
	DB	07dH
	DB	0efH
	DB	07dH
	DB	0efH
	DB	09eH
	DB	0f7H
	DB	07dH
	DB	0efH
	DB	07dH
	DB	0efH
	DB	07eH
	DB	0f7H
	DB	07eH
	DB	0f7H
	DB	09dH
	DB	0efH
	DB	07eH
	DB	0f7H
	DB	07eH
	DB	0f7H
	DB	09dH
	DB	0efH
	DB	07eH
	DB	0f7H
	DB	07eH
	DB	0f7H
	DB	07dH
	DB	0efH
	DB	09eH
	DB	0f7H
	DB	07eH
	DB	0f7H
	DB	07dH
	DB	0efH
	DB	09eH
	DB	0f7H
	DB	07eH
	DB	0f7H
	DB	07dH
	DB	0efH
	DB	09eH
	DB	0f7H
	DB	07eH
	DB	0f7H
	DB	07dH
	DB	0efH
	DB	07eH
	DB	0f7H
	DB	07eH
	DB	0f7H
	DB	07dH
	DB	0efH
	DB	09eH
	DB	0f7H
	DB	07eH
	DB	0f7H
	DB	07dH
	DB	0efH
	DB	07eH
	DB	0f7H
	DB	07dH
	DB	0efH
	DB	09eH
	DB	0f7H
	DB	07eH
	DB	0f7H
	DB	07dH
	DB	0efH
	DB	07eH
	DB	0f7H
	DB	07eH
	DB	0f7H
	DB	07dH
	DB	0efH
	DB	07eH
	DB	0f7H
	DB	07eH
	DB	0f7H
	DB	07dH
	DB	0efH
	DB	09eH
	DB	0f7H
	DB	07eH
	DB	0f7H
	DB	07dH
	DB	0efH
	DB	09eH
	DB	0f7H
	DB	07dH
	DB	0efH
	DB	07eH
	DB	0f7H
	DB	07eH
	DB	0f7H
	DB	07dH
	DB	0efH
	DB	07eH
	DB	0f7H
	DB	07eH
	DB	0f7H
	DB	07eH
	DB	0f7H
	DB	07dH
	DB	0efH
	DB	07eH
	DB	0f7H
	DB	07dH
	DB	0efH
	DB	09dH
	DB	0efH
	DB	07eH
	DB	0f7H
	DB	07eH
	DB	0f7H
	DB	07dH
	DB	0efH
	DB	07eH
	DB	0f7H
	DB	07dH
	DB	0efH
	DB	09eH
	DB	0f7H
	DB	07dH
	DB	0efH
	DB	07eH
	DB	0f7H
	DB	07dH
	DB	0efH
	DB	07eH
	DB	0f7H
	DB	07dH
	DB	0efH
	DB	07eH
	DB	0f7H
	DB	07eH
	DB	0f7H
	DB	07eH
	DB	0f7H
	DB	09dH
	DB	0efH
	DB	07eH
	DB	0f7H
	DB	07eH
	DB	0f7H
	DB	07dH
	DB	0efH
	DB	09eH
	DB	0f7H
	DB	07eH
	DB	0f7H
	DB	07dH
	DB	0efH
	DB	07eH
	DB	0f7H
	DB	07eH
	DB	0f7H
	DB	07dH
	DB	0efH
	DB	07eH
	DB	0f7H
	DB	09dH
	DB	0efH
	DB	07eH
	DB	0f7H
	DB	07eH
	DB	0f7H
	DB	09dH
	DB	0efH
	DB	07eH
	DB	0f7H
	DB	07eH
	DB	0f7H
	DB	07dH
	DB	0efH
	DB	07eH
	DB	0f7H
	DB	07dH
	DB	0efH
	DB	09dH
	DB	0efH
	DB	07eH
	DB	0f7H
	DB	07eH
	DB	0f7H
	DB	09eH
	DB	0f7H
	DB	07dH
	DB	0efH
	DB	07eH
	DB	0f7H
	DB	07eH
	DB	0f7H
	DB	07dH
	DB	0efH
	DB	09eH
	DB	0f7H
	DB	07eH
	DB	0f7H
	DB	07dH
	DB	0efH
	DB	09eH
	DB	0f7H
	DB	07dH
	DB	0efH
	DB	07dH
	DB	0efH
	DB	07eH
	DB	0f7H
	DB	07dH
	DB	0efH
	DB	07eH
	DB	0f7H
	DB	07eH
	DB	0f7H
	DB	07dH
	DB	0efH
	DB	07eH
	DB	0f7H
	DB	07eH
	DB	0f7H
	DB	07dH
	DB	0efH
	DB	09eH
	DB	0f7H
	DB	07eH
	DB	0f7H
	DB	07dH
	DB	0efH
	DB	09dH
	DB	0efH
	DB	07eH
	DB	0f7H
	DB	07eH
	DB	0f7H
	DB	07dH
	DB	0efH
	DB	07eH
	DB	0f7H
	DB	07eH
	DB	0f7H
	DB	07dH
	DB	0efH
	DB	07eH
	DB	0f7H
	DB	07eH
	DB	0f7H
	DB	07dH
	DB	0efH
	DB	07eH
	DB	0f7H
	DB	09eH
	DB	0f7H
	DB	07dH
	DB	0efH
	DB	07eH
	DB	0f7H
	DB	07eH
	DB	0f7H
	DB	07dH
	DB	0efH
	DB	07eH
	DB	0f7H
	DB	09dH
	DB	0efH
	DB	07eH
	DB	0f7H
	DB	07eH
	DB	0f7H
	DB	07dH
	DB	0efH
	DB	07eH
	DB	0f7H
	DB	07dH
	DB	0efH
	DB	09eH
	DB	0f7H
	DB	07dH
	DB	0efH
	DB	07eH
	DB	0f7H
	DB	09dH
	DB	0efH
	DB	07eH
	DB	0f7H
	DB	07eH
	DB	0f7H
	DB	09dH
	DB	0efH
	DB	07eH
	DB	0f7H
	DB	07eH
	DB	0f7H
	DB	07dH
	DB	0efH
	DB	07eH
	DB	0f7H
	DB	07eH
	DB	0f7H
	DB	07dH
	DB	0efH
	DB	09eH
	DB	0f7H
	DB	07dH
	DB	0efH
	DB	07eH
	DB	0f7H
	DB	07dH
	DB	0efH
	DB	07eH
	DB	0f7H
	DB	07eH
	DB	0f7H
	DB	09dH
	DB	0efH
	DB	07eH
	DB	0f7H
	DB	07eH
	DB	0f7H
	DB	09dH
	DB	0efH
	DB	07dH
	DB	0efH
	DB	07eH
	DB	0f7H
	DB	09dH
	DB	0efH
	DB	07eH
	DB	0f7H
	DB	07eH
	DB	0f7H
	DB	07dH
	DB	0efH
	DB	07eH
	DB	0f7H
	DB	07eH
	DB	0f7H
	DB	09dH
	DB	0efH
	DB	07eH
	DB	0f7H
	DB	07eH
	DB	0f7H
	DB	07dH
	DB	0efH
	DB	07eH
	DB	0f7H
	DB	07eH
	DB	0f7H
	DB	07dH
	DB	0efH
	DB	09eH
	DB	0f7H
	DB	07eH
	DB	0f7H
	DB	07dH
	DB	0efH
	DB	09eH
	DB	0f7H
	DB	07eH
	DB	0f7H
	DB	07dH
	DB	0efH
	DB	07eH
	DB	0f7H
	DB	09eH
	DB	0f7H
	DB	07dH
	DB	0efH
	DB	07dH
	DB	0efH
	DB	07eH
	DB	0f7H
	DB	09eH
	DB	0f7H
	DB	07dH
	DB	0efH
	DB	07eH
	DB	0f7H
	DB	07eH
	DB	0f7H
	DB	07dH
	DB	0efH
	DB	09eH
	DB	0f7H
	DB	07eH
	DB	0f7H
	DB	07dH
	DB	0efH
	DB	09eH
	DB	0f7H
	DB	07dH
	DB	0efH
	DB	07eH
	DB	0f7H
	DB	07dH
	DB	0efH
	DB	07eH
	DB	0f7H
	DB	09dH
	DB	0efH
	DB	07eH
	DB	0f7H
	DB	07eH
	DB	0f7H
	DB	07dH
	DB	0efH
	DB	07eH
	DB	0f7H
	DB	07dH
	DB	0efH
	DB	07eH
	DB	0f7H
	DB	07dH
	DB	0efH
	DB	07eH
	DB	0f7H
	DB	07eH
	DB	0f7H
	DB	07dH
	DB	0efH
	DB	09eH
	DB	0f7H
	DB	07eH
	DB	0f7H
	DB	07eH
	DB	0f7H
	DB	09dH
	DB	0efH
	DB	07eH
	DB	0f7H
	DB	07dH
	DB	0efH
	DB	09eH
	DB	0f7H
	DB	07dH
	DB	0efH
	DB	07dH
	DB	0efH
	DB	07eH
	DB	0f7H
	DB	09dH
	DB	0efH
	DB	07eH
	DB	0f7H
	DB	07dH
	DB	0efH
	DB	07eH
	DB	0f7H
	DB	07eH
	DB	0f7H
	DB	07dH
	DB	0efH
	DB	07eH
	DB	0f7H
	DB	07dH
	DB	0efH
	DB	07eH
	DB	0f7H
	DB	07dH
	DB	0efH
	DB	07eH
	DB	0f7H
	DB	09eH
	DB	0f7H
	DB	07dH
	DB	0efH
	DB	07eH
	DB	0f7H
	DB	09eH
	DB	0f7H
	DB	07dH
	DB	0efH
	DB	07eH
	DB	0f7H
	DB	09dH
	DB	0efH
	DB	07eH
	DB	0f7H
	DB	07eH
	DB	0f7H
	DB	07dH
	DB	0efH
	DB	07eH
	DB	0f7H
	DB	07eH
	DB	0f7H
	DB	07dH
	DB	0efH
	DB	09eH
	DB	0f7H
	DB	07dH
	DB	0efH
	DB	07eH
	DB	0f7H
	DB	09dH
	DB	0efH
	DB	07dH
	DB	0efH
	DB	07eH
	DB	0f7H
	DB	07eH
	DB	0f7H
	DB	09eH
	DB	0f7H
	DB	07eH
	DB	0f7H
	DB	07dH
	DB	0efH
	DB	07eH
	DB	0f7H
	DB	07dH
	DB	0efH
	DB	07eH
	DB	0f7H
	DB	07eH
	DB	0f7H
	DB	07dH
	DB	0efH
	DB	09eH
	DB	0f7H
	DB	07dH
	DB	0efH
	DB	07eH
	DB	0f7H
	DB	07eH
	DB	0f7H
	DB	07dH
	DB	0efH
	DB	07eH
	DB	0f7H
	DB	07eH
	DB	0f7H
	DB	07dH
	DB	0efH
	DB	09eH
	DB	0f7H
	DB	07dH
	DB	0efH
	DB	07dH
	DB	0efH
	DB	07eH
	DB	0f7H
	DB	07dH
	DB	0efH
	DB	07eH
	DB	0f7H
	DB	07eH
	DB	0f7H
	DB	07dH
	DB	0efH
	DB	07eH
	DB	0f7H
	DB	07eH
	DB	0f7H
	DB	09dH
	DB	0efH
	DB	07eH
	DB	0f7H
	DB	07dH
	DB	0efH
	DB	07dH
	DB	0efH
	DB	07eH
	DB	0f7H
	DB	07dH
	DB	0efH
	DB	09eH
	DB	0f7H
	DB	07dH
	DB	0efH
	DB	07eH
	DB	0f7H
	DB	07eH
	DB	0f7H
	DB	09dH
	DB	0efH
	DB	07eH
	DB	0f7H
	DB	07eH
	DB	0f7H
	DB	07dH
	DB	0efH
	DB	07eH
	DB	0f7H
	DB	07dH
	DB	0efH
	DB	09dH
	DB	0efH
	DB	07eH
	DB	0f7H
	DB	07dH
	DB	0efH
	DB	09eH
	DB	0f7H
	DB	07eH
	DB	0f7H
	DB	09dH
	DB	0efH
	DB	07eH
	DB	0f7H
	DB	09eH
	DB	0f7H
	DB	07dH
	DB	0efH
	DB	07eH
	DB	0f7H
	DB	07eH
	DB	0f7H
	DB	07dH
	DB	0efH
	DB	07eH
	DB	0f7H
	DB	07eH
	DB	0f7H
	DB	07dH
	DB	0efH
	DB	07eH
	DB	0f7H
	DB	09dH
	DB	0efH
	DB	07dH
	DB	0efH
	DB	07eH
	DB	0f7H
	DB	07eH
	DB	0f7H
	DB	09dH
	DB	0efH
	DB	07eH
	DB	0f7H
	DB	07dH
	DB	0efH
	DB	09dH
	DB	0efH
	DB	07eH
	DB	0f7H
	DB	09dH
	DB	0efH
	DB	07dH
	DB	0efH
	DB	07eH
	DB	0f7H
	DB	09eH
	DB	0f7H
	DB	07dH
	DB	0efH
	DB	07dH
	DB	0efH
	DB	09eH
	DB	0f7H
	DB	09eH
	DB	0f7H
	DB	07dH
	DB	0efH
	DB	07eH
	DB	0f7H
	DB	09eH
	DB	0f7H
	DB	07dH
	DB	0efH
	DB	07eH
	DB	0f7H
	DB	07dH
	DB	0efH
	DB	07eH
	DB	0f7H
	DB	07dH
	DB	0efH
	DB	09eH
	DB	0f7H
	DB	07dH
	DB	0efH
	DB	07eH
	DB	0f7H
	DB	09eH
	DB	0f7H
	DB	07eH
	DB	0f7H
	DB	07eH
	DB	0f7H
	DB	07dH
	DB	0efH
	DB	07eH
	DB	0f7H
	DB	07eH
	DB	0f7H
	DB	07eH
	DB	0f7H
	DB	09eH
	DB	0f7H
	DB	07eH
	DB	0f7H
	DB	07dH
	DB	0efH
	DB	07eH
	DB	0f7H
	DB	09eH
	DB	0f7H
	DB	07dH
	DB	0efH
	DB	07eH
	DB	0f7H
	DB	07eH
	DB	0f7H
	DB	09dH
	DB	0efH
	DB	07eH
	DB	0f7H
	DB	07eH
	DB	0f7H
	DB	09dH
	DB	0efH
	DB	07eH
	DB	0f7H
	DB	07eH
	DB	0f7H
	DB	07dH
	DB	0efH
	DB	07eH
	DB	0f7H
	DB	09eH
	DB	0f7H
	DB	09dH
	DB	0efH
	DB	07eH
	DB	0f7H
	DB	07eH
	DB	0f7H
	DB	07dH
	DB	0efH
	DB	07eH
	DB	0f7H
	DB	09eH
	DB	0f7H
	DB	07dH
	DB	0efH
	DB	07eH
	DB	0f7H
	DB	09eH
	DB	0f7H
	DB	07dH
	DB	0efH
	DB	07eH
	DB	0f7H
	DB	09dH
	DB	0efH
	DB	09eH
	DB	0f7H
	DB	07eH
	DB	0f7H
	DB	07dH
	DB	0efH
	DB	07eH
	DB	0f7H
	DB	07dH
	DB	0efH
	DB	07eH
	DB	0f7H
	DB	09eH
	DB	0f7H
	DB	07dH
	DB	0efH
	DB	07eH
	DB	0f7H
	DB	07eH
	DB	0f7H
	DB	07eH
	DB	0f7H
	DB	07dH
	DB	0efH
	DB	07eH
	DB	0f7H
	DB	07eH
	DB	0f7H
	DB	07dH
	DB	0efH
	DB	07eH
	DB	0f7H
	DB	07eH
	DB	0f7H
	DB	07dH
	DB	0efH
	DB	07eH
	DB	0f7H
	DB	07eH
	DB	0f7H
	DB	07dH
	DB	0efH
	DB	09dH
	DB	0efH
	DB	07eH
	DB	0f7H
	DB	07eH
	DB	0f7H
	DB	07dH
	DB	0efH
	DB	09eH
	DB	0f7H
	DB	07eH
	DB	0f7H
	DB	07dH
	DB	0efH
	DB	09eH
	DB	0f7H
	DB	07eH
	DB	0f7H
	DB	07dH
	DB	0efH
	DB	09eH
	DB	0f7H
	DB	07eH
	DB	0f7H
	DB	07dH
	DB	0efH
	DB	07eH
	DB	0f7H
	DB	09dH
	DB	0efH
	DB	07eH
	DB	0f7H
	DB	07eH
	DB	0f7H
	DB	07dH
	DB	0efH
	DB	07eH
	DB	0f7H
	DB	07eH
	DB	0f7H
	DB	07eH
	DB	0f7H
	DB	07eH
	DB	0f7H
	DB	07eH
	DB	0f7H
	DB	09dH
	DB	0efH
	DB	07eH
	DB	0f7H
	DB	07eH
	DB	0f7H
	DB	09dH
	DB	0efH
	DB	07eH
	DB	0f7H
	DB	09eH
	DB	0f7H
	DB	07dH
	DB	0efH
	DB	09eH
	DB	0f7H
	DB	07eH
	DB	0f7H
	DB	07dH
	DB	0efH
	DB	07eH
	DB	0f7H
	DB	07eH
	DB	0f7H
	DB	07dH
	DB	0efH
	DB	07eH
	DB	0f7H
	DB	07eH
	DB	0f7H
	DB	07dH
	DB	0efH
	DB	07eH
	DB	0f7H
	DB	07eH
	DB	0f7H
	DB	07dH
	DB	0efH
	DB	07eH
	DB	0f7H
	DB	09eH
	DB	0f7H
	DB	07dH
	DB	0efH
	DB	07eH
	DB	0f7H
	DB	09eH
	DB	0f7H
	DB	07dH
	DB	0efH
	DB	07eH
	DB	0f7H
	DB	07eH
	DB	0f7H
	DB	07eH
	DB	0f7H
	DB	07dH
	DB	0efH
	DB	07eH
	DB	0f7H
	DB	09eH
	DB	0f7H
	DB	07dH
	DB	0efH
	DB	07eH
	DB	0f7H
	DB	09eH
	DB	0f7H
	DB	07dH
	DB	0efH
	DB	09eH
	DB	0f7H
	DB	07dH
	DB	0efH
	DB	07eH
	DB	0f7H
	DB	09eH
	DB	0f7H
	DB	07dH
	DB	0efH
	DB	07eH
	DB	0f7H
	DB	07eH
	DB	0f7H
	DB	07dH
	DB	0efH
	DB	09eH
	DB	0f7H
	DB	07eH
	DB	0f7H
	DB	07dH
	DB	0efH
	DB	09eH
	DB	0f7H
	DB	07eH
	DB	0f7H
	DB	07eH
	DB	0f7H
	DB	09dH
	DB	0efH
	DB	07eH
	DB	0f7H
	DB	09eH
	DB	0f7H
	DB	07dH
	DB	0efH
	DB	09eH
	DB	0f7H
	DB	07eH
	DB	0f7H
	DB	07dH
	DB	0efH
	DB	07eH
	DB	0f7H
	DB	07eH
	DB	0f7H
	DB	07dH
	DB	0efH
	DB	09eH
	DB	0f7H
	DB	07eH
	DB	0f7H
	DB	07eH
	DB	0f7H
	DB	09eH
	DB	0f7H
	DB	07eH
	DB	0f7H
	DB	07eH
	DB	0f7H
	DB	07dH
	DB	0efH
	DB	07eH
	DB	0f7H
	DB	09eH
	DB	0f7H
	DB	07dH
	DB	0efH
	DB	07eH
	DB	0f7H
	DB	07dH
	DB	0efH
	DB	09eH
	DB	0f7H
	DB	07eH
	DB	0f7H
	DB	07dH
	DB	0efH
	DB	07eH
	DB	0f7H
	DB	07eH
	DB	0f7H
	DB	09dH
	DB	0efH
	DB	07dH
	DB	0efH
	DB	07eH
	DB	0f7H
	DB	09dH
	DB	0efH
	DB	07eH
	DB	0f7H
	DB	07dH
	DB	0efH
	DB	09eH
	DB	0f7H
	DB	07dH
	DB	0efH
	DB	07eH
	DB	0f7H
	DB	09dH
	DB	0efH
	DB	07eH
	DB	0f7H
	DB	07dH
	DB	0efH
	DB	09eH
	DB	0f7H
	DB	07eH
	DB	0f7H
	DB	07dH
	DB	0efH
	DB	07eH
	DB	0f7H
	DB	09eH
	DB	0f7H
	DB	07dH
	DB	0efH
	DB	07eH
	DB	0f7H
	DB	09dH
	DB	0efH
	DB	07eH
	DB	0f7H
	DB	09eH
	DB	0f7H
	DB	07dH
	DB	0efH
	DB	09eH
	DB	0f7H
	DB	07dH
	DB	0efH
	DB	07eH
	DB	0f7H
	DB	09dH
	DB	0efH
	DB	07eH
	DB	0f7H
	DB	07eH
	DB	0f7H
	DB	07dH
	DB	0efH
	DB	07eH
	DB	0f7H
	DB	09eH
	DB	0f7H
	DB	07dH
	DB	0efH
	DB	07eH
	DB	0f7H
	DB	09dH
	DB	0efH
	DB	07eH
	DB	0f7H
	DB	07eH
	DB	0f7H
	DB	09dH
	DB	0efH
	DB	09eH
	DB	0f7H
	DB	07eH
	DB	0f7H
	DB	07eH
	DB	0f7H
	DB	07dH
	DB	0efH
	DB	09eH
	DB	0f7H
	DB	07eH
	DB	0f7H
	DB	07dH
	DB	0efH
	DB	09eH
	DB	0f7H
	DB	07eH
	DB	0f7H
	DB	07dH
	DB	0efH
	DB	09eH
	DB	0f7H
	DB	07eH
	DB	0f7H
	DB	07dH
	DB	0efH
	DB	09eH
	DB	0f7H
	DB	07eH
	DB	0f7H
	DB	07dH
	DB	0efH
	DB	07eH
	DB	0f7H
	DB	07eH
	DB	0f7H
	DB	07dH
	DB	0efH
	DB	07eH
	DB	0f7H
	DB	07eH
	DB	0f7H
	DB	07dH
	DB	0efH
	DB	07eH
	DB	0f7H
	DB	09eH
	DB	0f7H
	DB	07dH
	DB	0efH
	DB	09eH
	DB	0f7H
	DB	07dH
	DB	0efH
	DB	07eH
	DB	0f7H
	DB	07eH
	DB	0f7H
	DB	07dH
	DB	0efH
	DB	07eH
	DB	0f7H
	DB	07eH
	DB	0f7H
	DB	07dH
	DB	0efH
	DB	09eH
	DB	0f7H
	DB	07eH
	DB	0f7H
	DB	07dH
	DB	0efH
	DB	09eH
	DB	0f7H
	DB	07eH
	DB	0f7H
	DB	07dH
	DB	0efH
	DB	07eH
	DB	0f7H
	DB	07eH
	DB	0f7H
	DB	07dH
	DB	0efH
	DB	09eH
	DB	0f7H
	DB	07dH
	DB	0efH
	DB	07eH
	DB	0f7H
	DB	09dH
	DB	0efH
	DB	07eH
	DB	0f7H
	DB	07dH
	DB	0efH
	DB	07eH
	DB	0f7H
	DB	09eH
	DB	0f7H
	DB	07eH
	DB	0f7H
	DB	07eH
	DB	0f7H
	DB	09eH
	DB	0f7H
	DB	07dH
	DB	0efH
	DB	07eH
	DB	0f7H
	DB	09eH
	DB	0f7H
	DB	07dH
	DB	0efH
	DB	07eH
	DB	0f7H
	DB	07eH
	DB	0f7H
	DB	07dH
	DB	0efH
	DB	09eH
	DB	0f7H
	DB	07eH
	DB	0f7H
	DB	07eH
	DB	0f7H
	DB	07dH
	DB	0efH
	DB	09eH
	DB	0f7H
	DB	07eH
	DB	0f7H
	DB	07dH
	DB	0efH
	DB	09eH
	DB	0f7H
	DB	09eH
	DB	0f7H
	DB	07dH
	DB	0efH
	DB	07eH
	DB	0f7H
	DB	09eH
	DB	0f7H
	DB	07dH
	DB	0efH
	DB	07eH
	DB	0f7H
	DB	07dH
	DB	0efH
	DB	07eH
	DB	0f7H
	DB	09dH
	DB	0efH
	DB	07eH
	DB	0f7H
	DB	07eH
	DB	0f7H
	DB	09dH
	DB	0efH
	DB	07eH
	DB	0f7H
	DB	09eH
	DB	0f7H
	DB	09dH
	DB	0efH
	DB	07eH
	DB	0f7H
	DB	07eH
	DB	0f7H
	DB	07dH
	DB	0efH
	DB	07eH
	DB	0f7H
	DB	09eH
	DB	0f7H
	DB	07dH
	DB	0efH
	DB	07eH
	DB	0f7H
	DB	07dH
	DB	0efH
	DB	07eH
	DB	0f7H
	DB	09eH
	DB	0f7H
	DB	07dH
	DB	0efH
	DB	07eH
	DB	0f7H
	DB	09eH
	DB	0f7H
	DB	07dH
	DB	0efH
	DB	07eH
	DB	0f7H
	DB	09eH
	DB	0f7H
	DB	07dH
	DB	0efH
	DB	07eH
	DB	0f7H
	DB	09eH
	DB	0f7H
	DB	07dH
	DB	0efH
	DB	07eH
	DB	0f7H
	DB	07eH
	DB	0f7H
	DB	07dH
	DB	0efH
	DB	07eH
	DB	0f7H
	DB	07eH
	DB	0f7H
	DB	09dH
	DB	0efH
	DB	07eH
	DB	0f7H
	DB	07eH
	DB	0f7H
	DB	09dH
	DB	0efH
	DB	07eH
	DB	0f7H
	DB	07eH
	DB	0f7H
	DB	09dH
	DB	0efH
	DB	07eH
	DB	0f7H
	DB	07eH
	DB	0f7H
	DB	07dH
	DB	0efH
	DB	09eH
	DB	0f7H
	DB	07eH
	DB	0f7H
	DB	07dH
	DB	0efH
	DB	09eH
	DB	0f7H
	DB	07eH
	DB	0f7H
	DB	07dH
	DB	0efH
	DB	07eH
	DB	0f7H
	DB	07eH
	DB	0f7H
	DB	07dH
	DB	0efH
	DB	09eH
	DB	0f7H
	DB	07dH
	DB	0efH
	DB	07eH
	DB	0f7H
	DB	07dH
	DB	0efH
	DB	07eH
	DB	0f7H
	DB	07eH
	DB	0f7H
	DB	07dH
	DB	0efH
	DB	07eH
	DB	0f7H
	DB	09eH
	DB	0f7H
	DB	07dH
	DB	0efH
	DB	07dH
	DB	0efH
	DB	09eH
	DB	0f7H
	DB	07dH
	DB	0efH
	DB	07eH
	DB	0f7H
	DB	07eH
	DB	0f7H
	DB	07dH
	DB	0efH
	DB	07eH
	DB	0f7H
	DB	09eH
	DB	0f7H
	DB	07dH
	DB	0efH
	DB	07eH
	DB	0f7H
	DB	07eH
	DB	0f7H
	DB	07dH
	DB	0efH
	DB	09eH
	DB	0f7H
	DB	07dH
	DB	0efH
	DB	07eH
	DB	0f7H
	DB	09eH
	DB	0f7H
	DB	09dH
	DB	0efH
	DB	07eH
	DB	0f7H
	DB	07eH
	DB	0f7H
	DB	09dH
	DB	0efH
	DB	07eH
	DB	0f7H
	DB	07dH
	DB	0efH
	DB	07dH
	DB	0efH
	DB	07eH
	DB	0f7H
	DB	07eH
	DB	0f7H
	DB	09eH
	DB	0f7H
	DB	07dH
	DB	0efH
	DB	07eH
	DB	0f7H
	DB	09eH
	DB	0f7H
	DB	07eH
	DB	0f7H
	DB	07eH
	DB	0f7H
	DB	09eH
	DB	0f7H
	DB	07dH
	DB	0efH
	DB	07eH
	DB	0f7H
	DB	09eH
	DB	0f7H
	DB	07dH
	DB	0efH
	DB	09eH
	DB	0f7H
	DB	07eH
	DB	0f7H
	DB	07dH
	DB	0efH
	DB	07eH
	DB	0f7H
	DB	09eH
	DB	0f7H
	DB	07dH
	DB	0efH
	DB	07eH
	DB	0f7H
	DB	07dH
	DB	0efH
	DB	07eH
	DB	0f7H
	DB	07eH
	DB	0f7H
	DB	07dH
	DB	0efH
	DB	07eH
	DB	0f7H
	DB	07eH
	DB	0f7H
	DB	07dH
	DB	0efH
	DB	07eH
	DB	0f7H
	DB	09dH
	DB	0efH
	DB	07eH
	DB	0f7H
	DB	07eH
	DB	0f7H
	DB	09dH
	DB	0efH
	DB	07eH
	DB	0f7H
	DB	07eH
	DB	0f7H
	DB	07eH
	DB	0f7H
	DB	07dH
	DB	0efH
	DB	07eH
	DB	0f7H
	DB	07eH
	DB	0f7H
	DB	07dH
	DB	0efH
	DB	07dH
	DB	0efH
	DB	09eH
	DB	0f7H
	DB	07eH
	DB	0f7H
	DB	07eH
	DB	0f7H
	DB	09dH
	DB	0efH
	DB	07eH
	DB	0f7H
	DB	09dH
	DB	0efH
	DB	07eH
	DB	0f7H
	DB	07eH
	DB	0f7H
	DB	07dH
	DB	0efH
	DB	07eH
	DB	0f7H
	DB	09dH
	DB	0efH
	DB	07eH
	DB	0f7H
	DB	09eH
	DB	0f7H
	DB	07dH
	DB	0efH
	DB	07eH
	DB	0f7H
	DB	09eH
	DB	0f7H
	DB	07dH
	DB	0efH
	DB	07eH
	DB	0f7H
	DB	09eH
	DB	0f7H
	DB	07dH
	DB	0efH
	DB	07eH
	DB	0f7H
	DB	09dH
	DB	0efH
	DB	07eH
	DB	0f7H
	DB	07eH
	DB	0f7H
	DB	09dH
	DB	0efH
	DB	07eH
	DB	0f7H
	DB	07eH
	DB	0f7H
	DB	07dH
	DB	0efH
	DB	07eH
	DB	0f7H
	DB	09eH
	DB	0f7H
	DB	07dH
	DB	0efH
	DB	07eH
	DB	0f7H
	DB	07eH
	DB	0f7H
	DB	09dH
	DB	0efH
	DB	07eH
	DB	0f7H
	DB	07eH
	DB	0f7H
	DB	07dH
	DB	0efH
	DB	07eH
	DB	0f7H
	DB	07eH
	DB	0f7H
	DB	09dH
	DB	0efH
	DB	07eH
	DB	0f7H
	DB	07eH
	DB	0f7H
	DB	07eH
	DB	0f7H
	DB	07dH
	DB	0efH
	DB	07eH
	DB	0f7H
	DB	07eH
	DB	0f7H
	DB	09dH
	DB	0efH
	DB	07eH
	DB	0f7H
	DB	07eH
	DB	0f7H
	DB	09dH
	DB	0efH
	DB	07eH
	DB	0f7H
	DB	09eH
	DB	0f7H
	DB	09eH
	DB	0f7H
	DB	07eH
	DB	0f7H
	DB	07dH
	DB	0efH
	DB	07eH
	DB	0f7H
	DB	07eH
	DB	0f7H
	DB	07eH
	DB	0f7H
	DB	07eH
	DB	0f7H
	DB	07dH
	DB	0efH
	DB	07eH
	DB	0f7H
	DB	07eH
	DB	0f7H
	DB	09dH
	DB	0efH
	DB	07eH
	DB	0f7H
	DB	07eH
	DB	0f7H
	DB	07eH
	DB	0f7H
	DB	07eH
	DB	0f7H
	DB	07dH
	DB	0efH
	DB	07eH
	DB	0f7H
	DB	07eH
	DB	0f7H
	DB	07dH
	DB	0efH
	DB	09eH
	DB	0f7H
	DB	07eH
	DB	0f7H
	DB	07dH
	DB	0efH
	DB	07eH
	DB	0f7H
	DB	07dH
	DB	0efH
	DB	07eH
	DB	0f7H
	DB	07eH
	DB	0f7H
	DB	07eH
	DB	0f7H
	DB	09dH
	DB	0efH
	DB	07eH
	DB	0f7H
	DB	07eH
	DB	0f7H
	DB	07dH
	DB	0efH
	DB	07eH
	DB	0f7H
	DB	07eH
	DB	0f7H
	DB	07dH
	DB	0efH
	DB	09eH
	DB	0f7H
	DB	07dH
	DB	0efH
	DB	07eH
	DB	0f7H
	DB	07dH
	DB	0efH
	DB	09dH
	DB	0efH
	DB	07eH
	DB	0f7H
	DB	07dH
	DB	0efH
	DB	09eH
	DB	0f7H
	DB	07eH
	DB	0f7H
	DB	07dH
	DB	0efH
	DB	07eH
	DB	0f7H
	DB	07eH
	DB	0f7H
	DB	09dH
	DB	0efH
	DB	07eH
	DB	0f7H
	DB	07eH
	DB	0f7H
	DB	07dH
	DB	0efH
	DB	09eH
	DB	0f7H
	DB	07eH
	DB	0f7H
	DB	07dH
	DB	0efH
	DB	09eH
	DB	0f7H
	DB	07eH
	DB	0f7H
	DB	07dH
	DB	0efH
	DB	07eH
	DB	0f7H
	DB	07dH
	DB	0efH
	DB	07eH
	DB	0f7H
	DB	09eH
	DB	0f7H
	DB	07dH
	DB	0efH
	DB	07dH
	DB	0efH
	DB	09eH
	DB	0f7H
	DB	07eH
	DB	0f7H
	DB	07dH
	DB	0efH
	DB	09eH
	DB	0f7H
	DB	07dH
	DB	0efH
	DB	07eH
	DB	0f7H
	DB	07eH
	DB	0f7H
	DB	07dH
	DB	0efH
	DB	07eH
	DB	0f7H
	DB	09eH
	DB	0f7H
	DB	07dH
	DB	0efH
	DB	09eH
	DB	0f7H
	DB	07eH
	DB	0f7H
	DB	07dH
	DB	0efH
	DB	07eH
	DB	0f7H
	DB	09eH
	DB	0f7H
	DB	07dH
	DB	0efH
	DB	09eH
	DB	0f7H
	DB	07eH
	DB	0f7H
	DB	09dH
	DB	0efH
	DB	07eH
	DB	0f7H
	DB	09dH
	DB	0efH
	DB	07eH
	DB	0f7H
	DB	09dH
	DB	0efH
	DB	07eH
	DB	0f7H
	DB	09eH
	DB	0f7H
	DB	07dH
	DB	0efH
	DB	07eH
	DB	0f7H
	DB	09eH
	DB	0f7H
	DB	07dH
	DB	0efH
	DB	07eH
	DB	0f7H
	DB	09eH
	DB	0f7H
	DB	07dH
	DB	0efH
	DB	07eH
	DB	0f7H
	DB	07eH
	DB	0f7H
	DB	09dH
	DB	0efH
	DB	07eH
	DB	0f7H
	DB	07eH
	DB	0f7H
	DB	09dH
	DB	0efH
	DB	07eH
	DB	0f7H
	DB	07eH
	DB	0f7H
	DB	07dH
	DB	0efH
	DB	07eH
	DB	0f7H
	DB	07eH
	DB	0f7H
	DB	09dH
	DB	0efH
	DB	07eH
	DB	0f7H
	DB	07eH
	DB	0f7H
	DB	09dH
	DB	0efH
	DB	09eH
	DB	0f7H
	DB	07dH
	DB	0efH
	DB	07eH
	DB	0f7H
	DB	09dH
	DB	0efH
	DB	07eH
	DB	0f7H
	DB	07dH
	DB	0efH
	DB	09eH
	DB	0f7H
	DB	07eH
	DB	0f7H
	DB	07dH
	DB	0efH
	DB	07eH
	DB	0f7H
	DB	09eH
	DB	0f7H
	DB	07dH
	DB	0efH
	DB	07eH
	DB	0f7H
	DB	09eH
	DB	0f7H
	DB	07dH
	DB	0efH
	DB	09eH
	DB	0f7H
	DB	09dH
	DB	0efH
	DB	07eH
	DB	0f7H
	DB	07eH
	DB	0f7H
	DB	09dH
	DB	0efH
	DB	09eH
	DB	0f7H
	DB	07eH
	DB	0f7H
	DB	07dH
	DB	0efH
	DB	09eH
	DB	0f7H
	DB	07eH
	DB	0f7H
	DB	07dH
	DB	0efH
	DB	07eH
	DB	0f7H
	DB	09eH
	DB	0f7H
	DB	07dH
	DB	0efH
	DB	07eH
	DB	0f7H
	DB	09dH
	DB	0efH
	DB	07eH
	DB	0f7H
	DB	07eH
	DB	0f7H
	DB	09dH
	DB	0efH
	DB	07eH
	DB	0f7H
	DB	07eH
	DB	0f7H
	DB	07dH
	DB	0efH
	DB	07eH
	DB	0f7H
	DB	09eH
	DB	0f7H
	DB	07dH
	DB	0efH
	DB	07eH
	DB	0f7H
	DB	09dH
	DB	0efH
	DB	07eH
	DB	0f7H
	DB	07dH
	DB	0efH
	DB	09eH
	DB	0f7H
	DB	07dH
	DB	0efH
	DB	07eH
	DB	0f7H
	DB	07eH
	DB	0f7H
	DB	07dH
	DB	0efH
	DB	07eH
	DB	0f7H
	DB	07dH
	DB	0efH
	DB	07eH
	DB	0f7H
	DB	09eH
	DB	0f7H
	DB	07dH
	DB	0efH
	DB	07eH
	DB	0f7H
	DB	07eH
	DB	0f7H
	DB	09dH
	DB	0efH
	DB	07eH
	DB	0f7H
	DB	07eH
	DB	0f7H
	DB	09dH
	DB	0efH
	DB	07eH
	DB	0f7H
	DB	07eH
	DB	0f7H
	DB	09dH
	DB	0efH
	DB	07eH
	DB	0f7H
	DB	07eH
	DB	0f7H
	DB	09dH
	DB	0efH
	DB	07dH
	DB	0efH
	DB	07eH
	DB	0f7H
	DB	09eH
	DB	0f7H
	DB	07dH
	DB	0efH
	DB	07eH
	DB	0f7H
	DB	09eH
	DB	0f7H
	DB	07dH
	DB	0efH
	DB	07eH
	DB	0f7H
	DB	09eH
	DB	0f7H
	DB	07dH
	DB	0efH
	DB	07eH
	DB	0f7H
	DB	07eH
	DB	0f7H
	DB	09dH
	DB	0efH
	DB	07eH
	DB	0f7H
	DB	07eH
	DB	0f7H
	DB	07eH
	DB	0f7H
	DB	07dH
	DB	0efH
	DB	09eH
	DB	0f7H
	DB	07eH
	DB	0f7H
	DB	07dH
	DB	0efH
	DB	07eH
	DB	0f7H
	DB	07eH
	DB	0f7H
	DB	07dH
	DB	0efH
	DB	09eH
	DB	0f7H
	DB	07eH
	DB	0f7H
	DB	07dH
	DB	0efH
	DB	07eH
	DB	0f7H
	DB	07dH
	DB	0efH
	DB	07eH
	DB	0f7H
	DB	09eH
	DB	0f7H
	DB	07dH
	DB	0efH
	DB	07eH
	DB	0f7H
	DB	07eH
	DB	0f7H
	DB	07dH
	DB	0efH
	DB	07eH
	DB	0f7H
	DB	07eH
	DB	0f7H
	DB	09dH
	DB	0efH
	DB	07eH
	DB	0f7H
	DB	07eH
	DB	0f7H
	DB	09dH
	DB	0efH
	DB	07eH
	DB	0f7H
	DB	07eH
	DB	0f7H
	DB	07dH
	DB	0efH
	DB	09eH
	DB	0f7H
	DB	07eH
	DB	0f7H
	DB	07dH
	DB	0efH
	DB	07eH
	DB	0f7H
	DB	09eH
	DB	0f7H
	DB	07dH
	DB	0efH
	DB	07eH
	DB	0f7H
	DB	09dH
	DB	0efH
	DB	07eH
	DB	0f7H
	DB	07eH
	DB	0f7H
	DB	07dH
	DB	0efH
	DB	09eH
	DB	0f7H
	DB	07eH
	DB	0f7H
	DB	07dH
	DB	0efH
	DB	07eH
	DB	0f7H
	DB	09eH
	DB	0f7H
	DB	07dH
	DB	0efH
	DB	07eH
	DB	0f7H
	DB	07eH
	DB	0f7H
	DB	07dH
	DB	0efH
	DB	09eH
	DB	0f7H
	DB	07eH
	DB	0f7H
	DB	07dH
	DB	0efH
	DB	09eH
	DB	0f7H
	DB	09dH
	DB	0efH
	DB	07dH
	DB	0efH
	DB	09eH
	DB	0f7H
	DB	07eH
	DB	0f7H
	DB	09dH
	DB	0efH
	DB	09eH
	DB	0f7H
	DB	07dH
	DB	0efH
	DB	07eH
	DB	0f7H
	DB	07dH
	DB	0efH
	DB	07eH
	DB	0f7H
	DB	09eH
	DB	0f7H
	DB	07dH
	DB	0efH
	DB	09eH
	DB	0f7H
	DB	09eH
	DB	0f7H
	DB	07dH
	DB	0efH
	DB	09eH
	DB	0f7H
	DB	07dH
	DB	0efH
	DB	07eH
	DB	0f7H
	DB	07dH
	DB	0efH
	DB	09eH
	DB	0f7H
	DB	07eH
	DB	0f7H
	DB	07dH
	DB	0efH
	DB	09eH
	DB	0f7H
	DB	07eH
	DB	0f7H
	DB	09dH
	DB	0efH
	DB	07dH
	DB	0efH
	DB	07eH
	DB	0f7H
	DB	07eH
	DB	0f7H
	DB	07dH
	DB	0efH
	DB	09eH
	DB	0f7H
	DB	07eH
	DB	0f7H
	DB	07dH
	DB	0efH
	DB	07eH
	DB	0f7H
	DB	09dH
	DB	0efH
	DB	07dH
	DB	0efH
	DB	07eH
	DB	0f7H
	DB	07eH
	DB	0f7H
	DB	09dH
	DB	0efH
	DB	07eH
	DB	0f7H
	DB	07eH
	DB	0f7H
	DB	09dH
	DB	0efH
	DB	07eH
	DB	0f7H
	DB	09eH
	DB	0f7H
	DB	07dH
	DB	0efH
	DB	07eH
	DB	0f7H
	DB	07dH
	DB	0efH
	DB	07eH
	DB	0f7H
	DB	07eH
	DB	0f7H
	DB	07dH
	DB	0efH
	DB	07eH
	DB	0f7H
	DB	09eH
	DB	0f7H
	DB	07dH
	DB	0efH
	DB	07eH
	DB	0f7H
	DB	07dH
	DB	0efH
	DB	07eH
	DB	0f7H
	DB	09eH
	DB	0f7H
	DB	07dH
	DB	0efH
	DB	09eH
	DB	0f7H
	DB	07eH
	DB	0f7H
	DB	07dH
	DB	0efH
	DB	09eH
	DB	0f7H
	DB	07eH
	DB	0f7H
	DB	07dH
	DB	0efH
	DB	09eH
	DB	0f7H
	DB	07dH
	DB	0efH
	DB	07eH
	DB	0f7H
	DB	07dH
	DB	0efH
	DB	07eH
	DB	0f7H
	DB	09eH
	DB	0f7H
	DB	07dH
	DB	0efH
	DB	07eH
	DB	0f7H
	DB	09eH
	DB	0f7H
	DB	07dH
	DB	0efH
	DB	07eH
	DB	0f7H
	DB	09eH
	DB	0f7H
	DB	07dH
	DB	0efH
	DB	07eH
	DB	0f7H
	DB	07dH
	DB	0efH
	DB	09eH
	DB	0f7H
	DB	07dH
	DB	0efH
	DB	07eH
	DB	0f7H
	DB	09dH
	DB	0efH
	DB	07eH
	DB	0f7H
	DB	07eH
	DB	0f7H
	DB	07dH
	DB	0efH
	DB	07eH
	DB	0f7H
	DB	09eH
	DB	0f7H
	DB	07dH
	DB	0efH
	DB	09eH
	DB	0f7H
	DB	09dH
	DB	0efH
	DB	07eH
	DB	0f7H
	DB	07dH
	DB	0efH
	DB	09eH
	DB	0f7H
	DB	07eH
	DB	0f7H
	DB	07eH
	DB	0f7H
	DB	07dH
	DB	0efH
	DB	07eH
	DB	0f7H
	DB	07eH
	DB	0f7H
	DB	07dH
	DB	0efH
	DB	09eH
	DB	0f7H
	DB	07eH
	DB	0f7H
	DB	07dH
	DB	0efH
	DB	07eH
	DB	0f7H
	DB	07dH
	DB	0efH
	DB	09eH
	DB	0f7H
	DB	07dH
	DB	0efH
	DB	07eH
	DB	0f7H
	DB	09dH
	DB	0efH
	DB	07eH
	DB	0f7H
	DB	07eH
	DB	0f7H
	DB	09dH
	DB	0efH
	DB	07eH
	DB	0f7H
	DB	07eH
	DB	0f7H
	DB	07dH
	DB	0efH
	DB	09eH
	DB	0f7H
	DB	09eH
	DB	0f7H
	DB	07dH
	DB	0efH
	DB	09eH
	DB	0f7H
	DB	07eH
	DB	0f7H
	DB	07dH
	DB	0efH
	DB	07eH
	DB	0f7H
	DB	07eH
	DB	0f7H
	DB	09eH
	DB	0f7H
	DB	07dH
	DB	0efH
	DB	07eH
	DB	0f7H
	DB	09eH
	DB	0f7H
	DB	07dH
	DB	0efH
	DB	07eH
	DB	0f7H
	DB	07eH
	DB	0f7H
	DB	07dH
	DB	0efH
	DB	09eH
	DB	0f7H
	DB	07eH
	DB	0f7H
	DB	07dH
	DB	0efH
	DB	09eH
	DB	0f7H
	DB	07eH
	DB	0f7H
	DB	07dH
	DB	0efH
	DB	07eH
	DB	0f7H
	DB	07eH
	DB	0f7H
	DB	07dH
	DB	0efH
	DB	07eH
	DB	0f7H
	DB	09eH
	DB	0f7H
	DB	07dH
	DB	0efH
	DB	07eH
	DB	0f7H
	DB	09eH
	DB	0f7H
	DB	07dH
	DB	0efH
	DB	07eH
	DB	0f7H
	DB	09dH
	DB	0efH
	DB	07eH
	DB	0f7H
	DB	07eH
	DB	0f7H
	DB	07dH
	DB	0efH
	DB	07eH
	DB	0f7H
	DB	07dH
	DB	0efH
	DB	07eH
	DB	0f7H
	DB	07eH
	DB	0f7H
	DB	07dH
	DB	0efH
	DB	07eH
	DB	0f7H
	DB	07eH
	DB	0f7H
	DB	09dH
	DB	0efH
	DB	07dH
	DB	0efH
	DB	07eH
	DB	0f7H
	DB	09eH
	DB	0f7H
	DB	07dH
	DB	0efH
	DB	07eH
	DB	0f7H
	DB	09eH
	DB	0f7H
	DB	07dH
	DB	0efH
	DB	07eH
	DB	0f7H
	DB	09eH
	DB	0f7H
	DB	07dH
	DB	0efH
	DB	09dH
	DB	0efH
	DB	07eH
	DB	0f7H
	DB	09eH
	DB	0f7H
	DB	07dH
	DB	0efH
	DB	07eH
	DB	0f7H
	DB	09eH
	DB	0f7H
	DB	07dH
	DB	0efH
	DB	07eH
	DB	0f7H
	DB	09dH
	DB	0efH
	DB	07dH
	DB	0efH
	DB	07eH
	DB	0f7H
	DB	09eH
	DB	0f7H
	DB	07dH
	DB	0efH
	DB	09eH
	DB	0f7H
	DB	07eH
	DB	0f7H
	DB	07eH
	DB	0f7H
	DB	09dH
	DB	0efH
	DB	07dH
	DB	0efH
	DB	07eH
	DB	0f7H
	DB	07dH
	DB	0efH
	DB	09eH
	DB	0f7H
	DB	07eH
	DB	0f7H
	DB	07dH
	DB	0efH
	DB	09eH
	DB	0f7H
	DB	07eH
	DB	0f7H
	DB	07dH
	DB	0efH
	DB	09eH
	DB	0f7H
	DB	07eH
	DB	0f7H
	DB	07dH
	DB	0efH
	DB	07eH
	DB	0f7H
	DB	09dH
	DB	0efH
	DB	07eH
	DB	0f7H
	DB	07eH
	DB	0f7H
	DB	07dH
	DB	0efH
	DB	07eH
	DB	0f7H
	DB	09eH
	DB	0f7H
	DB	07eH
	DB	0f7H
	DB	07eH
	DB	0f7H
	DB	09dH
	DB	0efH
	DB	07eH
	DB	0f7H
	DB	07eH
	DB	0f7H
	DB	09dH
	DB	0efH
	DB	07eH
	DB	0f7H
	DB	07eH
	DB	0f7H
	DB	09dH
	DB	0efH
	DB	07eH
	DB	0f7H
	DB	07eH
	DB	0f7H
	DB	09dH
	DB	0efH
	DB	07eH
	DB	0f7H
	DB	07eH
	DB	0f7H
	DB	07dH
	DB	0efH
	DB	09eH
	DB	0f7H
	DB	07dH
	DB	0efH
	DB	09eH
	DB	0f7H
	DB	07dH
	DB	0efH
	DB	07eH
	DB	0f7H
	DB	09eH
	DB	0f7H
	DB	07dH
	DB	0efH
	DB	07eH
	DB	0f7H
	DB	09eH
	DB	0f7H
	DB	07dH
	DB	0efH
	DB	07eH
	DB	0f7H
	DB	09eH
	DB	0f7H
	DB	07dH
	DB	0efH
	DB	07eH
	DB	0f7H
	DB	07dH
	DB	0efH
	DB	07eH
	DB	0f7H
	DB	07dH
	DB	0efH
	DB	07dH
	DB	0efH
	DB	07eH
	DB	0f7H
	DB	09dH
	DB	0efH
	DB	07eH
	DB	0f7H
	DB	09dH
	DB	0efH
	DB	09eH
	DB	0f7H
	DB	07dH
	DB	0efH
	DB	09eH
	DB	0f7H
	DB	07eH
	DB	0f7H
	DB	07dH
	DB	0efH
	DB	09eH
	DB	0f7H
	DB	07eH
	DB	0f7H
	DB	07dH
	DB	0efH
	DB	07eH
	DB	0f7H
	DB	09eH
	DB	0f7H
	DB	07dH
	DB	0efH
	DB	07eH
	DB	0f7H
	DB	09eH
	DB	0f7H
	DB	07dH
	DB	0efH
	DB	07eH
	DB	0f7H
	DB	07eH
	DB	0f7H
	DB	07dH
	DB	0efH
	DB	07eH
	DB	0f7H
	DB	09eH
	DB	0f7H
	DB	07dH
	DB	0efH
	DB	09dH
	DB	0efH
	DB	07eH
	DB	0f7H
	DB	07eH
	DB	0f7H
	DB	09dH
	DB	0efH
	DB	07eH
	DB	0f7H
	DB	09eH
	DB	0f7H
	DB	07dH
	DB	0efH
	DB	09eH
	DB	0f7H
	DB	07eH
	DB	0f7H
	DB	07dH
	DB	0efH
	DB	07eH
	DB	0f7H
	DB	07eH
	DB	0f7H
	DB	07eH
	DB	0f7H
	DB	07eH
	DB	0f7H
	DB	09eH
	DB	0f7H
	DB	07dH
	DB	0efH
	DB	07eH
	DB	0f7H
	DB	07dH
	DB	0efH
	DB	07dH
	DB	0efH
	DB	09eH
	DB	0f7H
	DB	07eH
	DB	0f7H
	DB	07dH
	DB	0efH
	DB	07eH
	DB	0f7H
	DB	09dH
	DB	0efH
	DB	07eH
	DB	0f7H
	DB	07eH
	DB	0f7H
	DB	07dH
	DB	0efH
	DB	07dH
	DB	0efH
	DB	07eH
	DB	0f7H
	DB	07eH
	DB	0f7H
	DB	09dH
	DB	0efH
	DB	07dH
	DB	0efH
	DB	09eH
	DB	0f7H
	DB	07eH
	DB	0f7H
	DB	07dH
	DB	0efH
	DB	07eH
	DB	0f7H
	DB	07eH
	DB	0f7H
	DB	09dH
	DB	0efH
	DB	07eH
	DB	0f7H
	DB	07dH
	DB	0efH
	DB	07eH
	DB	0f7H
	DB	07eH
	DB	0f7H
	DB	09dH
	DB	0efH
	DB	07eH
	DB	0f7H
	DB	09eH
	DB	0f7H
	DB	07dH
	DB	0efH
	DB	07eH
	DB	0f7H
	DB	07dH
	DB	0efH
	DB	07eH
	DB	0f7H
	DB	07eH
	DB	0f7H
	DB	09dH
	DB	0efH
	DB	07dH
	DB	0efH
	DB	07eH
	DB	0f7H
	DB	07eH
	DB	0f7H
	DB	09dH
	DB	0efH
	DB	07dH
	DB	0efH
	DB	07eH
	DB	0f7H
	DB	07eH
	DB	0f7H
	DB	09dH
	DB	0efH
	DB	07dH
	DB	0efH
	DB	07eH
	DB	0f7H
	DB	07eH
	DB	0f7H
	DB	09dH
	DB	0efH
	DB	07eH
	DB	0f7H
	DB	07dH
	DB	0efH
	DB	09eH
	DB	0f7H
	DB	07eH
	DB	0f7H
	DB	07dH
	DB	0efH
	DB	07eH
	DB	0f7H
	DB	09eH
	DB	0f7H
	DB	07dH
	DB	0efH
	DB	07eH
	DB	0f7H
	DB	07dH
	DB	0efH
	DB	07eH
	DB	0f7H
	DB	07eH
	DB	0f7H
	DB	07dH
	DB	0efH
	DB	09eH
	DB	0f7H
	DB	07dH
	DB	0efH
	DB	07eH
	DB	0f7H
	DB	09eH
	DB	0f7H
	DB	07dH
	DB	0efH
	DB	07eH
	DB	0f7H
	DB	09dH
	DB	0efH
	DB	07eH
	DB	0f7H
	DB	07dH
	DB	0efH
	DB	07eH
	DB	0f7H
	DB	07dH
	DB	0efH
	DB	07eH
	DB	0f7H
	DB	07dH
	DB	0efH
	DB	07eH
	DB	0f7H
	DB	07eH
	DB	0f7H
	DB	07dH
	DB	0efH
	DB	07eH
	DB	0f7H
	DB	07eH
	DB	0f7H
	DB	07dH
	DB	0efH
	DB	07eH
	DB	0f7H
	DB	07eH
	DB	0f7H
	DB	07dH
	DB	0efH
	DB	07dH
	DB	0efH
	DB	07eH
	DB	0f7H
	DB	07eH
	DB	0f7H
	DB	07dH
	DB	0efH
	DB	07eH
	DB	0f7H
	DB	07dH
	DB	0efH
	DB	07eH
	DB	0f7H
	DB	07dH
	DB	0efH
	DB	07eH
	DB	0f7H
	DB	09dH
	DB	0efH
	DB	07eH
	DB	0f7H
	DB	07dH
	DB	0efH
	DB	07eH
	DB	0f7H
	DB	07dH
	DB	0efH
	DB	07dH
	DB	0efH
	DB	07eH
	DB	0f7H
	DB	07eH
	DB	0f7H
	DB	09dH
	DB	0efH
	DB	07eH
	DB	0f7H
	DB	07dH
	DB	0efH
	DB	09eH
	DB	0f7H
	DB	07dH
	DB	0efH
	DB	07eH
	DB	0f7H
	DB	09eH
	DB	0f7H
	DB	07dH
	DB	0efH
	DB	07eH
	DB	0f7H
	DB	07eH
	DB	0f7H
	DB	07eH
	DB	0f7H
	DB	07dH
	DB	0efH
	DB	07eH
	DB	0f7H
	DB	07eH
	DB	0f7H
	DB	07eH
	DB	0f7H
	DB	09dH
	DB	0efH
	DB	07eH
	DB	0f7H
	DB	09eH
	DB	0f7H
	DB	07dH
	DB	0efH
	DB	09eH
	DB	0f7H
	DB	07eH
	DB	0f7H
	DB	07dH
	DB	0efH
	DB	09dH
	DB	0efH
	DB	07eH
	DB	0f7H
	DB	07eH
	DB	0f7H
	DB	07dH
	DB	0efH
	DB	07eH
	DB	0f7H
	DB	07eH
	DB	0f7H
	DB	07dH
	DB	0efH
	DB	07eH
	DB	0f7H
	DB	09dH
	DB	0efH
	DB	07eH
	DB	0f7H
	DB	07eH
	DB	0f7H
	DB	07dH
	DB	0efH
	DB	07eH
	DB	0f7H
	DB	07dH
	DB	0efH
	DB	07eH
	DB	0f7H
	DB	07eH
	DB	0f7H
	DB	07dH
	DB	0efH
	DB	09eH
	DB	0f7H
	DB	07eH
	DB	0f7H
	DB	07dH
	DB	0efH
	DB	07eH
	DB	0f7H
	DB	07eH
	DB	0f7H
	DB	07dH
	DB	0efH
	DB	07eH
	DB	0f7H
	DB	07dH
	DB	0efH
	DB	09eH
	DB	0f7H
	DB	07eH
	DB	0f7H
	DB	07dH
	DB	0efH
	DB	09dH
	DB	0efH
	DB	07eH
	DB	0f7H
	DB	07dH
	DB	0efH
	DB	07eH
	DB	0f7H
	DB	07eH
	DB	0f7H
	DB	09dH
	DB	0efH
	DB	07eH
	DB	0f7H
	DB	07eH
	DB	0f7H
	DB	09dH
	DB	0efH
	DB	07eH
	DB	0f7H
	DB	07eH
	DB	0f7H
	DB	07dH
	DB	0efH
	DB	09eH
	DB	0f7H
	DB	07eH
	DB	0f7H
	DB	07dH
	DB	0efH
	DB	09eH
	DB	0f7H
	DB	07dH
	DB	0efH
	DB	07eH
	DB	0f7H
	DB	09eH
	DB	0f7H
	DB	07dH
	DB	0efH
	DB	07eH
	DB	0f7H
	DB	09dH
	DB	0efH
	DB	07eH
	DB	0f7H
	DB	07eH
	DB	0f7H
	DB	07dH
	DB	0efH
	DB	07eH
	DB	0f7H
	DB	07eH
	DB	0f7H
	DB	07dH
	DB	0efH
	DB	07eH
	DB	0f7H
	DB	09dH
	DB	0efH
	DB	07eH
	DB	0f7H
	DB	07dH
	DB	0efH
	DB	07eH
	DB	0f7H
	DB	09eH
	DB	0f7H
	DB	07dH
	DB	0efH
	DB	07dH
	DB	0efH
	DB	07eH
	DB	0f7H
	DB	07eH
	DB	0f7H
	DB	07dH
	DB	0efH
	DB	07eH
	DB	0f7H
	DB	07dH
	DB	0efH
	DB	07eH
	DB	0f7H
	DB	09eH
	DB	0f7H
	DB	07dH
	DB	0efH
	DB	07eH
	DB	0f7H
	DB	07dH
	DB	0efH
	DB	07eH
	DB	0f7H
	DB	09eH
	DB	0f7H
	DB	07dH
	DB	0efH
	DB	07eH
	DB	0f7H
	DB	07dH
	DB	0efH
	DB	07eH
	DB	0f7H
	DB	07eH
	DB	0f7H
	DB	07dH
	DB	0efH
	DB	07eH
	DB	0f7H
	DB	07eH
	DB	0f7H
	DB	07dH
	DB	0efH
	DB	07eH
	DB	0f7H
	DB	07eH
	DB	0f7H
	DB	07dH
	DB	0efH
	DB	07eH
	DB	0f7H
	DB	07dH
	DB	0efH
	DB	09eH
	DB	0f7H
	DB	07eH
	DB	0f7H
	DB	07dH
	DB	0efH
	DB	07eH
	DB	0f7H
	DB	07dH
	DB	0efH
	DB	07eH
	DB	0f7H
	DB	07eH
	DB	0f7H
	DB	07dH
	DB	0efH
	DB	09eH
	DB	0f7H
	DB	07eH
	DB	0f7H
	DB	07dH
	DB	0efH
	DB	07eH
	DB	0f7H
	DB	07eH
	DB	0f7H
	DB	07dH
	DB	0efH
	DB	07eH
	DB	0f7H
	DB	07eH
	DB	0f7H
	DB	07dH
	DB	0efH
	DB	09eH
	DB	0f7H
	DB	07eH
	DB	0f7H
	DB	07dH
	DB	0efH
	DB	09eH
	DB	0f7H
	DB	07eH
	DB	0f7H
	DB	07dH
	DB	0efH
	DB	07eH
	DB	0f7H
	DB	09eH
	DB	0f7H
	DB	07eH
	DB	0f7H
	DB	07dH
	DB	0efH
	DB	07eH
	DB	0f7H
	DB	09dH
	DB	0efH
	DB	07dH
	DB	0efH
	DB	07eH
	DB	0f7H
	DB	07dH
	DB	0efH
	DB	07eH
	DB	0f7H
	DB	07eH
	DB	0f7H
	DB	07dH
	DB	0efH
	DB	09eH
	DB	0f7H
	DB	07eH
	DB	0f7H
	DB	09dH
	DB	0efH
	DB	07eH
	DB	0f7H
	DB	09dH
	DB	0efH
	DB	07eH
	DB	0f7H
	DB	07eH
	DB	0f7H
	DB	07dH
	DB	0efH
	DB	07eH
	DB	0f7H
	DB	07eH
	DB	0f7H
	DB	09dH
	DB	0efH
	DB	07eH
	DB	0f7H
	DB	07dH
	DB	0efH
	DB	07dH
	DB	0efH
	DB	07eH
	DB	0f7H
	DB	09eH
	DB	0f7H
	DB	07dH
	DB	0efH
	DB	07dH
	DB	0efH
	DB	07eH
	DB	0f7H
	DB	07eH
	DB	0f7H
	DB	07dH
	DB	0efH
	DB	07eH
	DB	0f7H
	DB	07dH
	DB	0efH
	DB	07eH
	DB	0f7H
	DB	07eH
	DB	0f7H
	DB	07dH
	DB	0efH
	DB	09dH
	DB	0efH
	DB	07eH
	DB	0f7H
	DB	07eH
	DB	0f7H
	DB	07dH
	DB	0efH
	DB	07eH
	DB	0f7H
	DB	09eH
	DB	0f7H
	DB	07dH
	DB	0efH
	DB	07eH
	DB	0f7H
	DB	09eH
	DB	0f7H
	DB	07dH
	DB	0efH
	DB	07eH
	DB	0f7H
	DB	07eH
	DB	0f7H
	DB	07dH
	DB	0efH
	DB	09eH
	DB	0f7H
	DB	07dH
	DB	0efH
	DB	07eH
	DB	0f7H
	DB	09dH
	DB	0efH
	DB	07eH
	DB	0f7H
	DB	07eH
	DB	0f7H
	DB	07dH
	DB	0efH
	DB	07eH
	DB	0f7H
	DB	07eH
	DB	0f7H
	DB	09dH
	DB	0efH
	DB	07dH
	DB	0efH
	DB	07eH
	DB	0f7H
	DB	09dH
	DB	0efH
	DB	07eH
	DB	0f7H
	DB	07dH
	DB	0efH
	DB	09eH
	DB	0f7H
	DB	07dH
	DB	0efH
	DB	07eH
	DB	0f7H
	DB	09dH
	DB	0efH
	DB	07eH
	DB	0f7H
	DB	07eH
	DB	0f7H
	DB	09dH
	DB	0efH
	DB	07eH
	DB	0f7H
	DB	07eH
	DB	0f7H
	DB	07dH
	DB	0efH
	DB	09eH
	DB	0f7H
	DB	07eH
	DB	0f7H
	DB	07dH
	DB	0efH
	DB	09dH
	DB	0efH
	DB	07eH
	DB	0f7H
	DB	07eH
	DB	0f7H
	DB	07dH
	DB	0efH
	DB	07eH
	DB	0f7H
	DB	07eH
	DB	0f7H
	DB	07dH
	DB	0efH
	DB	09eH
	DB	0f7H
	DB	07eH
	DB	0f7H
	DB	09dH
	DB	0efH
	DB	07dH
	DB	0efH
	DB	07eH
	DB	0f7H
	DB	07eH
	DB	0f7H
	DB	07dH
	DB	0efH
	DB	07eH
	DB	0f7H
	DB	09eH
	DB	0f7H
	DB	07dH
	DB	0efH
	DB	09eH
	DB	0f7H
	DB	07dH
	DB	0efH
	DB	07eH
	DB	0f7H
	DB	07eH
	DB	0f7H
	DB	07dH
	DB	0efH
	DB	07eH
	DB	0f7H
	DB	07eH
	DB	0f7H
	DB	09dH
	DB	0efH
	DB	07eH
	DB	0f7H
	DB	09dH
	DB	0efH
	DB	07eH
	DB	0f7H
	DB	07dH
	DB	0efH
	DB	07dH
	DB	0efH
	DB	07eH
	DB	0f7H
	DB	07eH
	DB	0f7H
	DB	07dH
	DB	0efH
	DB	09eH
	DB	0f7H
	DB	07eH
	DB	0f7H
	DB	07dH
	DB	0efH
	DB	07eH
	DB	0f7H
	DB	07dH
	DB	0efH
	DB	09eH
	DB	0f7H
	DB	07eH
	DB	0f7H
	DB	07dH
	DB	0efH
	DB	09dH
	DB	0efH
	DB	07eH
	DB	0f7H
	DB	09dH
	DB	0efH
	DB	07eH
	DB	0f7H
	DB	07dH
	DB	0efH
	DB	07eH
	DB	0f7H
	DB	07eH
	DB	0f7H
	DB	07dH
	DB	0efH
	DB	07eH
	DB	0f7H
	DB	09eH
	DB	0f7H
	DB	07dH
	DB	0efH
	DB	07eH
	DB	0f7H
	DB	07eH
	DB	0f7H
	DB	09dH
	DB	0efH
	DB	07eH
	DB	0f7H
	DB	07eH
	DB	0f7H
	DB	09dH
	DB	0efH
	DB	07eH
	DB	0f7H
	DB	07eH
	DB	0f7H
	DB	07dH
	DB	0efH
	DB	09eH
	DB	0f7H
	DB	07eH
	DB	0f7H
	DB	07dH
	DB	0efH
	DB	07eH
	DB	0f7H
	DB	07eH
	DB	0f7H
	DB	07eH
	DB	0f7H
	DB	07dH
	DB	0efH
	DB	09eH
	DB	0f7H
	DB	07dH
	DB	0efH
	DB	07eH
	DB	0f7H
	DB	07dH
	DB	0efH
	DB	09eH
	DB	0f7H
	DB	07eH
	DB	0f7H
	DB	07eH
	DB	0f7H
	DB	07eH
	DB	0f7H
	DB	07dH
	DB	0efH
	DB	09eH
	DB	0f7H
	DB	07eH
	DB	0f7H
	DB	07dH
	DB	0efH
	DB	07eH
	DB	0f7H
	DB	07dH
	DB	0efH
	DB	09eH
	DB	0f7H
	DB	07dH
	DB	0efH
	DB	07dH
	DB	0efH
	DB	07eH
	DB	0f7H
	DB	07eH
	DB	0f7H
	DB	07dH
	DB	0efH
	DB	07eH
	DB	0f7H
	DB	09dH
	DB	0efH
	DB	07dH
	DB	0efH
	DB	07eH
	DB	0f7H
	DB	07dH
	DB	0efH
	DB	07dH
	DB	0efH
	DB	07eH
	DB	0f7H
	DB	07dH
	DB	0efH
	DB	07eH
	DB	0f7H
	DB	09dH
	DB	0efH
	DB	07eH
	DB	0f7H
	DB	07dH
	DB	0efH
	DB	07dH
	DB	0efH
	DB	07eH
	DB	0f7H
	DB	09eH
	DB	0f7H
	DB	07dH
	DB	0efH
	DB	07eH
	DB	0f7H
	DB	07eH
	DB	0f7H
	DB	09dH
	DB	0efH
	DB	07eH
	DB	0f7H
	DB	07dH
	DB	0efH
	DB	07eH
	DB	0f7H
	DB	07eH
	DB	0f7H
	DB	09dH
	DB	0efH
	DB	07dH
	DB	0efH
	DB	07eH
	DB	0f7H
	DB	07eH
	DB	0f7H
	DB	07dH
	DB	0efH
	DB	09eH
	DB	0f7H
	DB	07dH
	DB	0efH
	DB	07eH
	DB	0f7H
	DB	07dH
	DB	0efH
	DB	07eH
	DB	0f7H
	DB	07eH
	DB	0f7H
	DB	09dH
	DB	0efH
	DB	07eH
	DB	0f7H
	DB	07eH
	DB	0f7H
	DB	09eH
	DB	0f7H
	DB	07dH
	DB	0efH
	DB	07eH
	DB	0f7H
	DB	07eH
	DB	0f7H
	DB	07dH
	DB	0efH
	DB	07eH
	DB	0f7H
	DB	07eH
	DB	0f7H
	DB	07dH
	DB	0efH
	DB	09eH
	DB	0f7H
	DB	07eH
	DB	0f7H
	DB	07dH
	DB	0efH
	DB	07eH
	DB	0f7H
	DB	07dH
	DB	0efH
	DB	07dH
	DB	0efH
	DB	09eH
	DB	0f7H
	DB	07dH
	DB	0efH
	DB	07dH
	DB	0efH
	DB	09eH
	DB	0f7H
	DB	07eH
	DB	0f7H
	DB	07dH
	DB	0efH
	DB	09eH
	DB	0f7H
	DB	07dH
	DB	0efH
	DB	07eH
	DB	0f7H
	DB	09eH
	DB	0f7H
	DB	07eH
	DB	0f7H
	DB	07eH
	DB	0f7H
	DB	09dH
	DB	0efH
	DB	07eH
	DB	0f7H
	DB	07dH
	DB	0efH
	DB	07eH
	DB	0f7H
	DB	07eH
	DB	0f7H
	DB	07dH
	DB	0efH
	DB	07eH
	DB	0f7H
	DB	07dH
	DB	0efH
	DB	09eH
	DB	0f7H
	DB	07dH
	DB	0efH
	DB	07eH
	DB	0f7H
	DB	07dH
	DB	0efH
	DB	07dH
	DB	0efH
	DB	07dH
	DB	0efH
	DB	07eH
	DB	0f7H
	DB	07dH
	DB	0efH
	DB	07eH
	DB	0f7H
	DB	07eH
	DB	0f7H
	DB	07dH
	DB	0efH
	DB	07dH
	DB	0efH
	DB	07dH
	DB	0efH
	DB	07eH
	DB	0f7H
	DB	07dH
	DB	0efH
	DB	07dH
	DB	0efH
	DB	07dH
	DB	0efH
	DB	07eH
	DB	0f7H
	DB	07dH
	DB	0efH
	DB	07dH
	DB	0efH
	DB	07eH
	DB	0f7H
	DB	07dH
	DB	0efH
	DB	07dH
	DB	0efH
	DB	07eH
	DB	0f7H
	DB	07dH
	DB	0efH
	DB	07dH
	DB	0efH
	DB	07dH
	DB	0efH
	DB	07dH
	DB	0efH
	DB	07eH
	DB	0f7H
	DB	07eH
	DB	0f7H
	DB	07dH
	DB	0efH
	DB	07dH
	DB	0efH
	DB	07eH
	DB	0f7H
	DB	07dH
	DB	0efH
	DB	07dH
	DB	0efH
	DB	07dH
	DB	0efH
	DB	07eH
	DB	0f7H
	DB	07dH
	DB	0efH
	DB	07dH
	DB	0efH
	DB	07eH
	DB	0f7H
	DB	07dH
	DB	0efH
	DB	07dH
	DB	0efH
	DB	07eH
	DB	0f7H
	DB	07dH
	DB	0efH
	DB	07dH
	DB	0efH
	DB	07eH
	DB	0f7H
	DB	07dH
	DB	0efH
	DB	07dH
	DB	0efH
	DB	07eH
	DB	0f7H
	DB	07eH
	DB	0f7H
	DB	07dH
	DB	0efH
	DB	07eH
	DB	0f7H
	DB	07eH
	DB	0f7H
	DB	07dH
	DB	0efH
	DB	07dH
	DB	0efH
	DB	07eH
	DB	0f7H
	DB	07dH
	DB	0efH
	DB	07dH
	DB	0efH
	DB	07eH
	DB	0f7H
	DB	07dH
	DB	0efH
	DB	07dH
	DB	0efH
	DB	07dH
	DB	0efH
	DB	07eH
	DB	0f7H
	DB	07dH
	DB	0efH
	DB	07dH
	DB	0efH
	DB	07eH
	DB	0f7H
	DB	07dH
	DB	0efH
	DB	07dH
	DB	0efH
	DB	07eH
	DB	0f7H
	DB	07dH
	DB	0efH
	DB	07dH
	DB	0efH
	DB	09eH
	DB	0f7H
	DB	07dH
	DB	0efH
	DB	07dH
	DB	0efH
	DB	07eH
	DB	0f7H
	DB	07dH
	DB	0efH
	DB	07dH
	DB	0efH
	DB	07eH
	DB	0f7H
	DB	07eH
	DB	0f7H
	DB	07dH
	DB	0efH
	DB	07dH
	DB	0efH
	DB	07eH
	DB	0f7H
	DB	07dH
	DB	0efH
	DB	07dH
	DB	0efH
	DB	07dH
	DB	0efH
	DB	07dH
	DB	0efH
	DB	07dH
	DB	0efH
	DB	07eH
	DB	0f7H
	DB	07dH
	DB	0efH
	DB	07dH
	DB	0efH
	DB	07eH
	DB	0f7H
	DB	09eH
	DB	0f7H
	DB	07dH
	DB	0efH
	DB	07dH
	DB	0efH
	DB	07eH
	DB	0f7H
	DB	07dH
	DB	0efH
	DB	07dH
	DB	0efH
	DB	07eH
	DB	0f7H
	DB	07dH
	DB	0efH
	DB	07eH
	DB	0f7H
	DB	07dH
	DB	0efH
	DB	07dH
	DB	0efH
	DB	07eH
	DB	0f7H
	DB	07eH
	DB	0f7H
	DB	07dH
	DB	0efH
	DB	07dH
	DB	0efH
	DB	07eH
	DB	0f7H
	DB	07dH
	DB	0efH
	DB	07dH
	DB	0efH
	DB	07eH
	DB	0f7H
	DB	07dH
	DB	0efH
	DB	07dH
	DB	0efH
	DB	07dH
	DB	0efH
	DB	07dH
	DB	0efH
	DB	07eH
	DB	0f7H
	DB	07dH
	DB	0efH
	DB	09dH
	DB	0efH
	DB	07dH
	DB	0efH
	DB	07eH
	DB	0f7H
	DB	07dH
	DB	0efH
	DB	07dH
	DB	0efH
	DB	07dH
	DB	0efH
	DB	07eH
	DB	0f7H
	DB	07dH
	DB	0efH
	DB	07eH
	DB	0f7H
	DB	07dH
	DB	0efH
	DB	07dH
	DB	0efH
	DB	07eH
	DB	0f7H
	DB	07dH
	DB	0efH
	DB	07dH
	DB	0efH
	DB	07eH
	DB	0f7H
	DB	07dH
	DB	0efH
	DB	07dH
	DB	0efH
	DB	07dH
	DB	0efH
	DB	09eH
	DB	0f7H
	DB	07dH
	DB	0efH
	DB	07dH
	DB	0efH
	DB	07eH
	DB	0f7H
	DB	07dH
	DB	0efH
	DB	07dH
	DB	0efH
	DB	07eH
	DB	0f7H
	DB	09eH
	DB	0f7H
	DB	07dH
	DB	0efH
	DB	07dH
	DB	0efH
	DB	07eH
	DB	0f7H
	DB	07dH
	DB	0efH
	DB	07dH
	DB	0efH
	DB	07dH
	DB	0efH
	DB	07dH
	DB	0efH
	DB	07eH
	DB	0f7H
	DB	07dH
	DB	0efH
	DB	07dH
	DB	0efH
	DB	07eH
	DB	0f7H
	DB	07dH
	DB	0efH
	DB	07dH
	DB	0efH
	DB	07eH
	DB	0f7H
	DB	07dH
	DB	0efH
	DB	07eH
	DB	0f7H
	DB	07dH
	DB	0efH
	DB	07dH
	DB	0efH
	DB	07eH
	DB	0f7H
	DB	07dH
	DB	0efH
	DB	07dH
	DB	0efH
	DB	07eH
	DB	0f7H
	DB	07dH
	DB	0efH
	DB	07dH
	DB	0efH
	DB	07eH
	DB	0f7H
	DB	07dH
	DB	0efH
	DB	07dH
	DB	0efH
	DB	07eH
	DB	0f7H
	DB	07dH
	DB	0efH
	DB	07dH
	DB	0efH
	DB	07eH
	DB	0f7H
	DB	07dH
	DB	0efH
	DB	07dH
	DB	0efH
	DB	07dH
	DB	0efH
	DB	07eH
	DB	0f7H
	DB	07dH
	DB	0efH
	DB	07dH
	DB	0efH
	DB	07dH
	DB	0efH
	DB	07eH
	DB	0f7H
	DB	07dH
	DB	0efH
	DB	07dH
	DB	0efH
	DB	07eH
	DB	0f7H
	DB	07dH
	DB	0efH
	DB	07dH
	DB	0efH
	DB	07eH
	DB	0f7H
	DB	07dH
	DB	0efH
	DB	07dH
	DB	0efH
	DB	07dH
	DB	0efH
	DB	07eH
	DB	0f7H
	DB	07dH
	DB	0efH
	DB	07eH
	DB	0f7H
	DB	07dH
	DB	0efH
	DB	07dH
	DB	0efH
	DB	07eH
	DB	0f7H
	DB	07dH
	DB	0efH
	DB	07dH
	DB	0efH
	DB	07dH
	DB	0efH
	DB	07eH
	DB	0f7H
	DB	07dH
	DB	0efH
	DB	07dH
	DB	0efH
	DB	07eH
	DB	0f7H
	DB	07dH
	DB	0efH
	DB	07dH
	DB	0efH
	DB	07eH
	DB	0f7H
	DB	07dH
	DB	0efH
	DB	09eH
	DB	0f7H
	DB	07dH
	DB	0efH
	DB	07dH
	DB	0efH
	DB	07eH
	DB	0f7H
	DB	07dH
	DB	0efH
	DB	07eH
	DB	0f7H
	DB	07eH
	DB	0f7H
	DB	07dH
	DB	0efH
	DB	07dH
	DB	0efH
	DB	07eH
	DB	0f7H
	DB	07eH
	DB	0f7H
	DB	07dH
	DB	0efH
	DB	07dH
	DB	0efH
	DB	07dH
	DB	0efH
	DB	07eH
	DB	0f7H
	DB	07dH
	DB	0efH
	DB	07dH
	DB	0efH
	DB	07eH
	DB	0f7H
	DB	07dH
	DB	0efH
	DB	07dH
	DB	0efH
	DB	07eH
	DB	0f7H
	DB	07dH
	DB	0efH
	DB	07dH
	DB	0efH
	DB	07dH
	DB	0efH
	DB	07dH
	DB	0efH
	DB	07eH
	DB	0f7H
	DB	07dH
	DB	0efH
	DB	07dH
	DB	0efH
	DB	07eH
	DB	0f7H
	DB	07dH
	DB	0efH
	DB	07dH
	DB	0efH
	DB	07eH
	DB	0f7H
	DB	07dH
	DB	0efH
	DB	07dH
	DB	0efH
	DB	07eH
	DB	0f7H
	DB	07dH
	DB	0efH
	DB	07dH
	DB	0efH
	DB	07eH
	DB	0f7H
	DB	07dH
	DB	0efH
	DB	07eH
	DB	0f7H
	DB	07eH
	DB	0f7H
	DB	07dH
	DB	0efH
	DB	07eH
	DB	0f7H
	DB	07dH
	DB	0efH
	DB	09eH
	DB	0f7H
	DB	07dH
	DB	0efH
	DB	07dH
	DB	0efH
	DB	07dH
	DB	0efH
	DB	07eH
	DB	0f7H
	DB	07dH
	DB	0efH
	DB	07dH
	DB	0efH
	DB	07eH
	DB	0f7H
	DB	07dH
	DB	0efH
	DB	07dH
	DB	0efH
	DB	07dH
	DB	0efH
	DB	07eH
	DB	0f7H
	DB	07dH
	DB	0efH
	DB	07dH
	DB	0efH
	DB	07eH
	DB	0f7H
	DB	07eH
	DB	0f7H
	DB	07dH
	DB	0efH
	DB	07eH
	DB	0f7H
	DB	07dH
	DB	0efH
	DB	07eH
	DB	0f7H
	DB	07dH
	DB	0efH
	DB	09eH
	DB	0f7H
	DB	07dH
	DB	0efH
	DB	07eH
	DB	0f7H
	DB	07dH
	DB	0efH
	DB	07eH
	DB	0f7H
	DB	09eH
	DB	0f7H
	DB	07dH
	DB	0efH
	DB	07dH
	DB	0efH
	DB	07eH
	DB	0f7H
	DB	07dH
	DB	0efH
	DB	07dH
	DB	0efH
	DB	07dH
	DB	0efH
	DB	07eH
	DB	0f7H
	DB	07dH
	DB	0efH
	DB	07dH
	DB	0efH
	DB	07eH
	DB	0f7H
	DB	07dH
	DB	0efH
	DB	07dH
	DB	0efH
	DB	07eH
	DB	0f7H
	DB	07dH
	DB	0efH
	DB	07dH
	DB	0efH
	DB	07eH
	DB	0f7H
	DB	07dH
	DB	0efH
	DB	07dH
	DB	0efH
	DB	07eH
	DB	0f7H
	DB	07dH
	DB	0efH
	DB	07dH
	DB	0efH
	DB	07eH
	DB	0f7H
	DB	07dH
	DB	0efH
	DB	07eH
	DB	0f7H
	DB	07dH
	DB	0efH
	DB	07eH
	DB	0f7H
	DB	07dH
	DB	0efH
	DB	07dH
	DB	0efH
	DB	07eH
	DB	0f7H
	DB	07dH
	DB	0efH
	DB	07dH
	DB	0efH
	DB	07eH
	DB	0f7H
	DB	07dH
	DB	0efH
	DB	07dH
	DB	0efH
	DB	07eH
	DB	0f7H
	DB	07dH
	DB	0efH
	DB	07dH
	DB	0efH
	DB	07eH
	DB	0f7H
	DB	07dH
	DB	0efH
	DB	07dH
	DB	0efH
	DB	07eH
	DB	0f7H
	DB	07dH
	DB	0efH
	DB	07dH
	DB	0efH
	DB	07eH
	DB	0f7H
	DB	07dH
	DB	0efH
	DB	07dH
	DB	0efH
	DB	07eH
	DB	0f7H
	DB	07dH
	DB	0efH
	DB	07dH
	DB	0efH
	DB	07dH
	DB	0efH
	DB	07dH
	DB	0efH
	DB	07eH
	DB	0f7H
	DB	07dH
	DB	0efH
	DB	09eH
	DB	0f7H
	DB	07dH
	DB	0efH
	DB	07eH
	DB	0f7H
	DB	07dH
	DB	0efH
	DB	07dH
	DB	0efH
	DB	07dH
	DB	0efH
	DB	07eH
	DB	0f7H
	DB	07dH
	DB	0efH
	DB	07eH
	DB	0f7H
	DB	07dH
	DB	0efH
	DB	07dH
	DB	0efH
	DB	07dH
	DB	0efH
	DB	07dH
	DB	0efH
	DB	07dH
	DB	0efH
	DB	07eH
	DB	0f7H
	DB	07dH
	DB	0efH
	DB	07eH
	DB	0f7H
	DB	07dH
	DB	0efH
	DB	07eH
	DB	0f7H
	DB	07dH
	DB	0efH
	DB	09eH
	DB	0f7H
	DB	07eH
	DB	0f7H
	DB	07dH
	DB	0efH
	DB	07dH
	DB	0efH
	DB	07eH
	DB	0f7H
	DB	07dH
	DB	0efH
	DB	07eH
	DB	0f7H
	DB	07dH
	DB	0efH
	DB	07dH
	DB	0efH
	DB	07eH
	DB	0f7H
	DB	07dH
	DB	0efH
	DB	07eH
	DB	0f7H
	DB	07dH
	DB	0efH
	DB	07dH
	DB	0efH
	DB	07eH
	DB	0f7H
	DB	07dH
	DB	0efH
	DB	07dH
	DB	0efH
	DB	07eH
	DB	0f7H
	DB	09eH
	DB	0f7H
	DB	07dH
	DB	0efH
	DB	07dH
	DB	0efH
	DB	07dH
	DB	0efH
	DB	07dH
	DB	0efH
	DB	07dH
	DB	0efH
	DB	07eH
	DB	0f7H
	DB	07dH
	DB	0efH
	DB	07dH
	DB	0efH
	DB	07eH
	DB	0f7H
	DB	07dH
	DB	0efH
	DB	07dH
	DB	0efH
	DB	07dH
	DB	0efH
	DB	07eH
	DB	0f7H
	DB	07dH
	DB	0efH
	DB	07dH
	DB	0efH
	DB	07dH
	DB	0efH
	DB	07eH
	DB	0f7H
	DB	07dH
	DB	0efH
	DB	07eH
	DB	0f7H
	DB	07dH
	DB	0efH
	DB	07dH
	DB	0efH
	DB	07eH
	DB	0f7H
	DB	07dH
	DB	0efH
	DB	07dH
	DB	0efH
	DB	07dH
	DB	0efH
	DB	07eH
	DB	0f7H
	DB	09eH
	DB	0f7H
	DB	07dH
	DB	0efH
	DB	07dH
	DB	0efH
	DB	07eH
	DB	0f7H
	DB	07dH
	DB	0efH
	DB	07dH
	DB	0efH
	DB	07eH
	DB	0f7H
	DB	07dH
	DB	0efH
	DB	07eH
	DB	0f7H
	DB	07dH
	DB	0efH
	DB	07dH
	DB	0efH
	DB	09eH
	DB	0f7H
	DB	07dH
	DB	0efH
	DB	07eH
	DB	0f7H
	DB	07eH
	DB	0f7H
	DB	07dH
	DB	0efH
	DB	07eH
	DB	0f7H
	DB	07eH
	DB	0f7H
	DB	07dH
	DB	0efH
	DB	07dH
	DB	0efH
	DB	07eH
	DB	0f7H
	DB	07dH
	DB	0efH
	DB	07eH
	DB	0f7H
	DB	07dH
	DB	0efH
	DB	07eH
	DB	0f7H
	DB	07dH
	DB	0efH
	DB	07dH
	DB	0efH
	DB	07eH
	DB	0f7H
	DB	07dH
	DB	0efH
	DB	07dH
	DB	0efH
	DB	07eH
	DB	0f7H
	DB	07eH
	DB	0f7H
	DB	07dH
	DB	0efH
	DB	07dH
	DB	0efH
	DB	07eH
	DB	0f7H
	DB	07eH
	DB	0f7H
	DB	07dH
	DB	0efH
	DB	07eH
	DB	0f7H
	DB	07dH
	DB	0efH
	DB	07dH
	DB	0efH
	DB	07eH
	DB	0f7H
	DB	07dH
	DB	0efH
	DB	07dH
	DB	0efH
	DB	07eH
	DB	0f7H
	DB	07dH
	DB	0efH
	DB	07dH
	DB	0efH
	DB	07eH
	DB	0f7H
	DB	07eH
	DB	0f7H
	DB	07dH
	DB	0efH
	DB	07dH
	DB	0efH
	DB	07eH
	DB	0f7H
	DB	07dH
	DB	0efH
	DB	07dH
	DB	0efH
	DB	07eH
	DB	0f7H
	DB	07dH
	DB	0efH
	DB	07dH
	DB	0efH
	DB	07eH
	DB	0f7H
	DB	07dH
	DB	0efH
	DB	07dH
	DB	0efH
	DB	07dH
	DB	0efH
	DB	07eH
	DB	0f7H
	DB	07dH
	DB	0efH
	DB	07eH
	DB	0f7H
	DB	07eH
	DB	0f7H
	DB	07dH
	DB	0efH
	DB	07eH
	DB	0f7H
	DB	07dH
	DB	0efH
	DB	07eH
	DB	0f7H
	DB	07dH
	DB	0efH
	DB	07dH
	DB	0efH
	DB	07eH
	DB	0f7H
	DB	07dH
	DB	0efH
	DB	07dH
	DB	0efH
	DB	07dH
	DB	0efH
	DB	07dH
	DB	0efH
	DB	07eH
	DB	0f7H
	DB	07dH
	DB	0efH
	DB	07dH
	DB	0efH
	DB	07eH
	DB	0f7H
	DB	07dH
	DB	0efH
	DB	07dH
	DB	0efH
	DB	07dH
	DB	0efH
	DB	07eH
	DB	0f7H
	DB	07dH
	DB	0efH
	DB	07dH
	DB	0efH
	DB	07eH
	DB	0f7H
	DB	07dH
	DB	0efH
	DB	07dH
	DB	0efH
	DB	07dH
	DB	0efH
	DB	07eH
	DB	0f7H
	DB	07dH
	DB	0efH
	DB	07dH
	DB	0efH
	DB	07eH
	DB	0f7H
	DB	07eH
	DB	0f7H
	DB	07dH
	DB	0efH
	DB	07eH
	DB	0f7H
	DB	07eH
	DB	0f7H
	DB	07dH
	DB	0efH
	DB	07eH
	DB	0f7H
	DB	07eH
	DB	0f7H
	DB	07dH
	DB	0efH
	DB	07eH
	DB	0f7H
	DB	07eH
	DB	0f7H
	DB	07dH
	DB	0efH
	DB	07eH
	DB	0f7H
	DB	07eH
	DB	0f7H
	DB	07dH
	DB	0efH
	DB	07eH
	DB	0f7H
	DB	07eH
	DB	0f7H
	DB	07eH
	DB	0f7H
	DB	07eH
	DB	0f7H
	DB	07dH
	DB	0efH
	DB	07dH
	DB	0efH
	DB	07eH
	DB	0f7H
	DB	07dH
	DB	0efH
	DB	07eH
	DB	0f7H
	DB	07eH
	DB	0f7H
	DB	07dH
	DB	0efH
	DB	07eH
	DB	0f7H
	DB	07eH
	DB	0f7H
	DB	07dH
	DB	0efH
	DB	07eH
	DB	0f7H
	DB	07eH
	DB	0f7H
	DB	07dH
	DB	0efH
	DB	07eH
	DB	0f7H
	DB	07eH
	DB	0f7H
	DB	07dH
	DB	0efH
	DB	07eH
	DB	0f7H
	DB	07eH
	DB	0f7H
	DB	07dH
	DB	0efH
	DB	07eH
	DB	0f7H
	DB	07eH
	DB	0f7H
	DB	07dH
	DB	0efH
	DB	07dH
	DB	0efH
	DB	07eH
	DB	0f7H
	DB	07dH
	DB	0efH
	DB	07dH
	DB	0efH
	DB	07eH
	DB	0f7H
	DB	07eH
	DB	0f7H
	DB	07dH
	DB	0efH
	DB	07eH
	DB	0f7H
	DB	07dH
	DB	0efH
	DB	07eH
	DB	0f7H
	DB	07eH
	DB	0f7H
	DB	07dH
	DB	0efH
	DB	07eH
	DB	0f7H
	DB	07eH
	DB	0f7H
	DB	07dH
	DB	0efH
	DB	07eH
	DB	0f7H
	DB	07dH
	DB	0efH
	DB	07eH
	DB	0f7H
	DB	07eH
	DB	0f7H
	DB	07dH
	DB	0efH
	DB	07eH
	DB	0f7H
	DB	07dH
	DB	0efH
	DB	07eH
	DB	0f7H
	DB	07eH
	DB	0f7H
	DB	07dH
	DB	0efH
	DB	07eH
	DB	0f7H
	DB	07eH
	DB	0f7H
	DB	07dH
	DB	0efH
	DB	07dH
	DB	0efH
	DB	07eH
	DB	0f7H
	DB	07dH
	DB	0efH
	DB	07eH
	DB	0f7H
	DB	07eH
	DB	0f7H
	DB	07dH
	DB	0efH
	DB	07eH
	DB	0f7H
	DB	07eH
	DB	0f7H
	DB	07eH
	DB	0f7H
	DB	07dH
	DB	0efH
	DB	07eH
	DB	0f7H
	DB	07eH
	DB	0f7H
	DB	07dH
	DB	0efH
	DB	07eH
	DB	0f7H
	DB	07dH
	DB	0efH
	DB	07dH
	DB	0efH
	DB	07eH
	DB	0f7H
	DB	07eH
	DB	0f7H
	DB	07dH
	DB	0efH
	DB	07eH
	DB	0f7H
	DB	07eH
	DB	0f7H
	DB	07dH
	DB	0efH
	DB	07eH
	DB	0f7H
	DB	07eH
	DB	0f7H
	DB	07dH
	DB	0efH
	DB	07dH
	DB	0efH
	DB	07eH
	DB	0f7H
	DB	07eH
	DB	0f7H
	DB	07dH
	DB	0efH
	DB	07eH
	DB	0f7H
	DB	07eH
	DB	0f7H
	DB	07dH
	DB	0efH
	DB	07eH
	DB	0f7H
	DB	07eH
	DB	0f7H
	DB	07eH
	DB	0f7H
	DB	07eH
	DB	0f7H
	DB	07dH
	DB	0efH
	DB	07eH
	DB	0f7H
	DB	07eH
	DB	0f7H
	DB	07dH
	DB	0efH
	DB	07eH
	DB	0f7H
	DB	07eH
	DB	0f7H
	DB	07dH
	DB	0efH
	DB	07eH
	DB	0f7H
	DB	07eH
	DB	0f7H
	DB	07dH
	DB	0efH
	DB	07dH
	DB	0efH
	DB	07eH
	DB	0f7H
	DB	07dH
	DB	0efH
	DB	07eH
	DB	0f7H
	DB	07eH
	DB	0f7H
	DB	07dH
	DB	0efH
	DB	07eH
	DB	0f7H
	DB	07eH
	DB	0f7H
	DB	07dH
	DB	0efH
	DB	07eH
	DB	0f7H
	DB	07eH
	DB	0f7H
	DB	07dH
	DB	0efH
	DB	07eH
	DB	0f7H
	DB	07eH
	DB	0f7H
	DB	07dH
	DB	0efH
	DB	07eH
	DB	0f7H
	DB	07dH
	DB	0efH
	DB	07dH
	DB	0efH
	DB	07eH
	DB	0f7H
	DB	07dH
	DB	0efH
	DB	07eH
	DB	0f7H
	DB	07dH
	DB	0efH
	DB	07eH
	DB	0f7H
	DB	07eH
	DB	0f7H
	DB	07dH
	DB	0efH
	DB	07eH
	DB	0f7H
	DB	07eH
	DB	0f7H
	DB	07dH
	DB	0efH
	DB	07eH
	DB	0f7H
	DB	07eH
	DB	0f7H
	DB	07dH
	DB	0efH
	DB	07eH
	DB	0f7H
	DB	07dH
	DB	0efH
	DB	07eH
	DB	0f7H
	DB	07eH
	DB	0f7H
	DB	07dH
	DB	0efH
	DB	07eH
	DB	0f7H
	DB	07eH
	DB	0f7H
	DB	07dH
	DB	0efH
	DB	07eH
	DB	0f7H
	DB	07dH
	DB	0efH
	DB	07eH
	DB	0f7H
	DB	07dH
	DB	0efH
	DB	07eH
	DB	0f7H
	DB	07dH
	DB	0efH
	DB	07eH
	DB	0f7H
	DB	07dH
	DB	0efH
	DB	07eH
	DB	0f7H
	DB	07eH
	DB	0f7H
	DB	07dH
	DB	0efH
	DB	07eH
	DB	0f7H
	DB	07eH
	DB	0f7H
	DB	07dH
	DB	0efH
	DB	07eH
	DB	0f7H
	DB	07eH
	DB	0f7H
	DB	07dH
	DB	0efH
	DB	07eH
	DB	0f7H
	DB	07eH
	DB	0f7H
	DB	07dH
	DB	0efH
	DB	07dH
	DB	0efH
	DB	07eH
	DB	0f7H
	DB	07eH
	DB	0f7H
	DB	07dH
	DB	0efH
	DB	07eH
	DB	0f7H
	DB	07eH
	DB	0f7H
	DB	07dH
	DB	0efH
	DB	07eH
	DB	0f7H
	DB	07dH
	DB	0efH
	DB	07eH
	DB	0f7H
	DB	07eH
	DB	0f7H
	DB	07dH
	DB	0efH
	DB	07eH
	DB	0f7H
	DB	07eH
	DB	0f7H
	DB	07dH
	DB	0efH
	DB	07eH
	DB	0f7H
	DB	07eH
	DB	0f7H
	DB	07dH
	DB	0efH
	DB	07eH
	DB	0f7H
	DB	07eH
	DB	0f7H
	DB	07dH
	DB	0efH
	DB	07eH
	DB	0f7H
	DB	07dH
	DB	0efH
	DB	07eH
	DB	0f7H
	DB	07dH
	DB	0efH
	DB	07eH
	DB	0f7H
	DB	07dH
	DB	0efH
	DB	07eH
	DB	0f7H
	DB	07dH
	DB	0efH
	DB	07dH
	DB	0efH
	DB	07eH
	DB	0f7H
	DB	07dH
	DB	0efH
	DB	07dH
	DB	0efH
	DB	07eH
	DB	0f7H
	DB	07dH
	DB	0efH
	DB	07dH
	DB	0efH
	DB	07eH
	DB	0f7H
	DB	07eH
	DB	0f7H
	DB	07dH
	DB	0efH
	DB	07eH
	DB	0f7H
	DB	07eH
	DB	0f7H
	DB	07dH
	DB	0efH
	DB	07eH
	DB	0f7H
	DB	07dH
	DB	0efH
	DB	07eH
	DB	0f7H
	DB	07eH
	DB	0f7H
	DB	07dH
	DB	0efH
	DB	07eH
	DB	0f7H
	DB	07eH
	DB	0f7H
	DB	07dH
	DB	0efH
	DB	07eH
	DB	0f7H
	DB	07dH
	DB	0efH
	DB	07eH
	DB	0f7H
	DB	07eH
	DB	0f7H
	DB	07dH
	DB	0efH
	DB	07eH
	DB	0f7H
	DB	07eH
	DB	0f7H
	DB	07dH
	DB	0efH
	DB	07eH
	DB	0f7H
	DB	07eH
	DB	0f7H
	DB	07dH
	DB	0efH
	DB	07dH
	DB	0efH
	DB	07eH
	DB	0f7H
	DB	07dH
	DB	0efH
	DB	07dH
	DB	0efH
	DB	07eH
	DB	0f7H
	DB	07eH
	DB	0f7H
	DB	07dH
	DB	0efH
	DB	07eH
	DB	0f7H
	DB	07dH
	DB	0efH
	DB	07eH
	DB	0f7H
	DB	07eH
	DB	0f7H
	DB	07dH
	DB	0efH
	DB	07eH
	DB	0f7H
	DB	07eH
	DB	0f7H
	DB	07dH
	DB	0efH
	DB	07eH
	DB	0f7H
	DB	07eH
	DB	0f7H
	DB	07dH
	DB	0efH
	DB	07eH
	DB	0f7H
	DB	07eH
	DB	0f7H
	DB	07dH
	DB	0efH
	DB	07dH
	DB	0efH
	DB	07eH
	DB	0f7H
	DB	07dH
	DB	0efH
	DB	07eH
	DB	0f7H
	DB	07dH
	DB	0efH
	DB	07eH
	DB	0f7H
	DB	07dH
	DB	0efH
	DB	07eH
	DB	0f7H
	DB	07dH
	DB	0efH
	DB	07eH
	DB	0f7H
	DB	07dH
	DB	0efH
	DB	07dH
	DB	0efH
	DB	07eH
	DB	0f7H
	DB	07dH
	DB	0efH
	DB	07dH
	DB	0efH
	DB	07eH
	DB	0f7H
	DB	07eH
	DB	0f7H
	DB	07eH
	DB	0f7H
	DB	07dH
	DB	0efH
	DB	07eH
	DB	0f7H
	DB	07eH
	DB	0f7H
	DB	07dH
	DB	0efH
	DB	07eH
	DB	0f7H
	DB	07eH
	DB	0f7H
	DB	07dH
	DB	0efH
	DB	07eH
	DB	0f7H
	DB	07eH
	DB	0f7H
	DB	07dH
	DB	0efH
	DB	07eH
	DB	0f7H
	DB	07eH
	DB	0f7H
	DB	07dH
	DB	0efH
	DB	07eH
	DB	0f7H
	DB	07eH
	DB	0f7H
	DB	07dH
	DB	0efH
	DB	07eH
	DB	0f7H
	DB	07dH
	DB	0efH
	DB	07eH
	DB	0f7H
	DB	07dH
	DB	0efH
	DB	07eH
	DB	0f7H
	DB	07eH
	DB	0f7H
	DB	07dH
	DB	0efH
	DB	07eH
	DB	0f7H
	DB	07eH
	DB	0f7H
	DB	07dH
	DB	0efH
	DB	07eH
	DB	0f7H
	DB	07eH
	DB	0f7H
	DB	07dH
	DB	0efH
	DB	07eH
	DB	0f7H
	DB	07eH
	DB	0f7H
	DB	07dH
	DB	0efH
	DB	07eH
	DB	0f7H
	DB	07eH
	DB	0f7H
	DB	07dH
	DB	0efH
	DB	07eH
	DB	0f7H
	DB	07eH
	DB	0f7H
	DB	07dH
	DB	0efH
	DB	07eH
	DB	0f7H
	DB	07eH
	DB	0f7H
	DB	07dH
	DB	0efH
	DB	07eH
	DB	0f7H
	DB	07eH
	DB	0f7H
	DB	07dH
	DB	0efH
	DB	07eH
	DB	0f7H
	DB	07eH
	DB	0f7H
	DB	07dH
	DB	0efH
	DB	07eH
	DB	0f7H
	DB	07eH
	DB	0f7H
	DB	07dH
	DB	0efH
	DB	07eH
	DB	0f7H
	DB	07dH
	DB	0efH
	DB	07eH
	DB	0f7H
	DB	07eH
	DB	0f7H
	DB	07dH
	DB	0efH
	DB	07eH
	DB	0f7H
	DB	07dH
	DB	0efH
	DB	07eH
	DB	0f7H
	DB	07eH
	DB	0f7H
	DB	07dH
	DB	0efH
	DB	07eH
	DB	0f7H
	DB	07eH
	DB	0f7H
	DB	07dH
	DB	0efH
	DB	07eH
	DB	0f7H
	DB	07dH
	DB	0efH
	DB	07dH
	DB	0efH
	DB	07eH
	DB	0f7H
	DB	07eH
	DB	0f7H
	DB	07dH
	DB	0efH
	DB	07dH
	DB	0efH
	DB	07eH
	DB	0f7H
	DB	07dH
	DB	0efH
	DB	07eH
	DB	0f7H
	DB	07dH
	DB	0efH
	DB	07eH
	DB	0f7H
	DB	07dH
	DB	0efH
	DB	07eH
	DB	0f7H
	DB	07dH
	DB	0efH
	DB	07dH
	DB	0efH
	DB	07eH
	DB	0f7H
	DB	07eH
	DB	0f7H
	DB	07dH
	DB	0efH
	DB	07eH
	DB	0f7H
	DB	07eH
	DB	0f7H
	DB	07dH
	DB	0efH
	DB	07dH
	DB	0efH
	DB	07eH
	DB	0f7H
	DB	07dH
	DB	0efH
	DB	07eH
	DB	0f7H
	DB	07eH
	DB	0f7H
	DB	07eH
	DB	0f7H
	DB	07dH
	DB	0efH
	DB	07eH
	DB	0f7H
	DB	07eH
	DB	0f7H
	DB	07dH
	DB	0efH
	DB	07eH
	DB	0f7H
	DB	07eH
	DB	0f7H
	DB	07dH
	DB	0efH
	DB	07eH
	DB	0f7H
	DB	07eH
	DB	0f7H
	DB	07dH
	DB	0efH
	DB	07eH
	DB	0f7H
	DB	07eH
	DB	0f7H
	DB	07dH
	DB	0efH
	DB	07dH
	DB	0efH
	DB	07eH
	DB	0f7H
	DB	07dH
	DB	0efH
	DB	07eH
	DB	0f7H
	DB	07eH
	DB	0f7H
	DB	07dH
	DB	0efH
	DB	07eH
	DB	0f7H
	DB	07eH
	DB	0f7H
	DB	07dH
	DB	0efH
	DB	07dH
	DB	0efH
	DB	07eH
	DB	0f7H
	DB	07dH
	DB	0efH
	DB	07eH
	DB	0f7H
	DB	07eH
	DB	0f7H
	DB	07dH
	DB	0efH
	DB	07eH
	DB	0f7H
	DB	07eH
	DB	0f7H
	DB	07dH
	DB	0efH
	DB	07eH
	DB	0f7H
	DB	07eH
	DB	0f7H
	DB	07dH
	DB	0efH
	DB	07eH
	DB	0f7H
	DB	07dH
	DB	0efH
	DB	07dH
	DB	0efH
	DB	07eH
	DB	0f7H
	DB	07dH
	DB	0efH
	DB	07eH
	DB	0f7H
	DB	07eH
	DB	0f7H
	DB	07dH
	DB	0efH
	DB	07eH
	DB	0f7H
	DB	07eH
	DB	0f7H
	DB	07dH
	DB	0efH
	DB	07dH
	DB	0efH
	DB	07eH
	DB	0f7H
	DB	07eH
	DB	0f7H
	DB	07dH
	DB	0efH
	DB	07eH
	DB	0f7H
	DB	07eH
	DB	0f7H
	DB	07dH
	DB	0efH
	DB	07dH
	DB	0efH
	DB	07eH
	DB	0f7H
	DB	07dH
	DB	0efH
	DB	07dH
	DB	0efH
	DB	07eH
	DB	0f7H
	DB	07dH
	DB	0efH
	DB	07dH
	DB	0efH
	DB	07eH
	DB	0f7H
	DB	07eH
	DB	0f7H
	DB	07dH
	DB	0efH
	DB	07eH
	DB	0f7H
	DB	07eH
	DB	0f7H
	DB	07dH
	DB	0efH
	DB	07eH
	DB	0f7H
	DB	07eH
	DB	0f7H
	DB	07dH
	DB	0efH
	DB	07dH
	DB	0efH
	DB	07eH
	DB	0f7H
	DB	07dH
	DB	0efH
	DB	07dH
	DB	0efH
	DB	07eH
	DB	0f7H
	DB	07dH
	DB	0efH
	DB	07eH
	DB	0f7H
	DB	07eH
	DB	0f7H
	DB	07dH
	DB	0efH
	DB	07eH
	DB	0f7H
	DB	07dH
	DB	0efH
	DB	07eH
	DB	0f7H
	DB	07eH
	DB	0f7H
	DB	07dH
	DB	0efH
	DB	07eH
	DB	0f7H
	DB	07dH
	DB	0efH
	DB	07eH
	DB	0f7H
	DB	07dH
	DB	0efH
	DB	07dH
	DB	0efH
	DB	07eH
	DB	0f7H
	DB	07eH
	DB	0f7H
	DB	07dH
	DB	0efH
	DB	07eH
	DB	0f7H
	DB	07dH
	DB	0efH
	DB	07eH
	DB	0f7H
	DB	07eH
	DB	0f7H
	DB	07dH
	DB	0efH
	DB	07eH
	DB	0f7H
	DB	07eH
	DB	0f7H
	DB	07dH
	DB	0efH
	DB	07eH
	DB	0f7H
	DB	07eH
	DB	0f7H
	DB	07dH
	DB	0efH
	DB	07eH
	DB	0f7H
	DB	07eH
	DB	0f7H
	DB	07dH
	DB	0efH
	DB	07eH
	DB	0f7H
	DB	07eH
	DB	0f7H
	DB	07dH
	DB	0efH
	DB	07eH
	DB	0f7H
	DB	07eH
	DB	0f7H
	DB	07dH
	DB	0efH
	DB	07eH
	DB	0f7H
	DB	07eH
	DB	0f7H
	DB	07eH
	DB	0f7H
	DB	07dH
	DB	0efH
	DB	07eH
	DB	0f7H
	DB	07dH
	DB	0efH
	DB	07dH
	DB	0efH
	DB	07eH
	DB	0f7H
	DB	07eH
	DB	0f7H
	DB	07dH
	DB	0efH
	DB	07dH
	DB	0efH
	DB	07eH
	DB	0f7H
	DB	07eH
	DB	0f7H
	DB	07dH
	DB	0efH
	DB	07dH
	DB	0efH
	DB	07eH
	DB	0f7H
	DB	07dH
	DB	0efH
	DB	07eH
	DB	0f7H
	DB	07dH
	DB	0efH
	DB	07eH
	DB	0f7H
	DB	07dH
	DB	0efH
	DB	07dH
	DB	0efH
	DB	07eH
	DB	0f7H
	DB	07eH
	DB	0f7H
	DB	07dH
	DB	0efH
	DB	07eH
	DB	0f7H
	DB	07dH
	DB	0efH
	DB	07eH
	DB	0f7H
	DB	07dH
	DB	0efH
	DB	07dH
	DB	0efH
	DB	07eH
	DB	0f7H
	DB	07eH
	DB	0f7H
	DB	07dH
	DB	0efH
	DB	07dH
	DB	0efH
	DB	07eH
	DB	0f7H
	DB	07dH
	DB	0efH
	DB	07dH
	DB	0efH
	DB	07eH
	DB	0f7H
	DB	07dH
	DB	0efH
	DB	07dH
	DB	0efH
	DB	07eH
	DB	0f7H
	DB	07dH
	DB	0efH
	DB	07dH
	DB	0efH
	DB	07eH
	DB	0f7H
	DB	07eH
	DB	0f7H
	DB	07dH
	DB	0efH
	DB	07eH
	DB	0f7H
	DB	07eH
	DB	0f7H
	DB	07dH
	DB	0efH
	DB	07dH
	DB	0efH
	DB	07eH
	DB	0f7H
	DB	07dH
	DB	0efH
	DB	07eH
	DB	0f7H
	DB	07dH
	DB	0efH
	DB	07eH
	DB	0f7H
	DB	07dH
	DB	0efH
	DB	07eH
	DB	0f7H
	DB	07dH
	DB	0efH
	DB	07eH
	DB	0f7H
	DB	07dH
	DB	0efH
	DB	07eH
	DB	0f7H
	DB	07dH
	DB	0efH
	DB	07eH
	DB	0f7H
	DB	07dH
	DB	0efH
	DB	07dH
	DB	0efH
	DB	07eH
	DB	0f7H
	DB	07dH
	DB	0efH
	DB	07eH
	DB	0f7H
	DB	07dH
	DB	0efH
	DB	07dH
	DB	0efH
	DB	07eH
	DB	0f7H
	DB	07dH
	DB	0efH
	DB	07eH
	DB	0f7H
	DB	07eH
	DB	0f7H
	DB	07dH
	DB	0efH
	DB	07eH
	DB	0f7H
	DB	07dH
	DB	0efH
	DB	07eH
	DB	0f7H
	DB	07dH
	DB	0efH
	DB	07eH
	DB	0f7H
	DB	07dH
	DB	0efH
	DB	07eH
	DB	0f7H
	DB	07dH
	DB	0efH
	DB	07eH
	DB	0f7H
	DB	07dH
	DB	0efH
	DB	07dH
	DB	0efH
	DB	07eH
	DB	0f7H
	DB	07dH
	DB	0efH
	DB	07eH
	DB	0f7H
	DB	07eH
	DB	0f7H
	DB	07dH
	DB	0efH
	DB	07dH
	DB	0efH
	DB	07eH
	DB	0f7H
	DB	07dH
	DB	0efH
	DB	07dH
	DB	0efH
	DB	07eH
	DB	0f7H
	DB	07dH
	DB	0efH
	DB	07eH
	DB	0f7H
	DB	07eH
	DB	0f7H
	DB	07dH
	DB	0efH
	DB	07dH
	DB	0efH
	DB	07eH
	DB	0f7H
	DB	07dH
	DB	0efH
	DB	07dH
	DB	0efH
	DB	07eH
	DB	0f7H
	DB	07dH
	DB	0efH
	DB	07dH
	DB	0efH
	DB	07eH
	DB	0f7H
	DB	07dH
	DB	0efH
	DB	07eH
	DB	0f7H
	DB	07dH
	DB	0efH
	DB	07dH
	DB	0efH
	DB	07eH
	DB	0f7H
	DB	07dH
	DB	0efH
	DB	07eH
	DB	0f7H
	DB	07dH
	DB	0efH
	DB	07dH
	DB	0efH
	DB	07eH
	DB	0f7H
	DB	07eH
	DB	0f7H
	DB	07dH
	DB	0efH
	DB	07eH
	DB	0f7H
	DB	07dH
	DB	0efH
	DB	07eH
	DB	0f7H
	DB	07dH
	DB	0efH
	DB	07dH
	DB	0efH
	DB	07eH
	DB	0f7H
	DB	07dH
	DB	0efH
	DB	07eH
	DB	0f7H
	DB	07dH
	DB	0efH
	DB	07eH
	DB	0f7H
	DB	07dH
	DB	0efH
	DB	07dH
	DB	0efH
	DB	07eH
	DB	0f7H
	DB	07dH
	DB	0efH
	DB	07eH
	DB	0f7H
	DB	07eH
	DB	0f7H
	DB	07dH
	DB	0efH
	DB	07eH
	DB	0f7H
	DB	07dH
	DB	0efH
	DB	07eH
	DB	0f7H
	DB	07dH
	DB	0efH
	DB	07eH
	DB	0f7H
	DB	07dH
	DB	0efH
	DB	07eH
	DB	0f7H
	DB	07eH
	DB	0f7H
	DB	07dH
	DB	0efH
	DB	07dH
	DB	0efH
	DB	07eH
	DB	0f7H
	DB	07dH
	DB	0efH
	DB	07dH
	DB	0efH
	DB	07eH
	DB	0f7H
	DB	07dH
	DB	0efH
	DB	07eH
	DB	0f7H
	DB	07dH
	DB	0efH
	DB	07dH
	DB	0efH
	DB	07eH
	DB	0f7H
	DB	07dH
	DB	0efH
	DB	07dH
	DB	0efH
	DB	07eH
	DB	0f7H
	DB	07dH
	DB	0efH
	DB	07eH
	DB	0f7H
	DB	07dH
	DB	0efH
	DB	07eH
	DB	0f7H
	DB	07dH
	DB	0efH
	DB	07eH
	DB	0f7H
	DB	07dH
	DB	0efH
	DB	07eH
	DB	0f7H
	DB	07dH
	DB	0efH
	DB	07dH
	DB	0efH
	DB	07eH
	DB	0f7H
	DB	07dH
	DB	0efH
	DB	07eH
	DB	0f7H
	DB	07dH
	DB	0efH
	DB	07dH
	DB	0efH
	DB	07eH
	DB	0f7H
	DB	07eH
	DB	0f7H
	DB	07dH
	DB	0efH
	DB	07eH
	DB	0f7H
	DB	07eH
	DB	0f7H
	DB	07dH
	DB	0efH
	DB	07eH
	DB	0f7H
	DB	07dH
	DB	0efH
	DB	07dH
	DB	0efH
	DB	07eH
	DB	0f7H
	DB	07eH
	DB	0f7H
	DB	07dH
	DB	0efH
	DB	07eH
	DB	0f7H
	DB	07dH
	DB	0efH
	DB	07dH
	DB	0efH
	DB	07eH
	DB	0f7H
	DB	07dH
	DB	0efH
	DB	07dH
	DB	0efH
	DB	07eH
	DB	0f7H
	DB	07dH
	DB	0efH
	DB	07eH
	DB	0f7H
	DB	07dH
	DB	0efH
	DB	07dH
	DB	0efH
	DB	07eH
	DB	0f7H
	DB	07dH
	DB	0efH
	DB	07eH
	DB	0f7H
	DB	07dH
	DB	0efH
	DB	07eH
	DB	0f7H
	DB	07dH
	DB	0efH
	DB	07eH
	DB	0f7H
	DB	07dH
	DB	0efH
	DB	07eH
	DB	0f7H
	DB	07eH
	DB	0f7H
	DB	07dH
	DB	0efH
	DB	07eH
	DB	0f7H
	DB	07eH
	DB	0f7H
	DB	07dH
	DB	0efH
	DB	07eH
	DB	0f7H
	DB	07eH
	DB	0f7H
	DB	07dH
	DB	0efH
	DB	07dH
	DB	0efH
	DB	07eH
	DB	0f7H
	DB	07eH
	DB	0f7H
	DB	07dH
	DB	0efH
	DB	07dH
	DB	0efH
	DB	07eH
	DB	0f7H
	DB	07eH
	DB	0f7H
	DB	07dH
	DB	0efH
	DB	07eH
	DB	0f7H
	DB	07dH
	DB	0efH
	DB	07dH
	DB	0efH
	DB	07eH
	DB	0f7H
	DB	07eH
	DB	0f7H
	DB	07dH
	DB	0efH
	DB	07eH
	DB	0f7H
	DB	07dH
	DB	0efH
	DB	07eH
	DB	0f7H
	DB	07dH
	DB	0efH
	DB	07dH
	DB	0efH
	DB	07eH
	DB	0f7H
	DB	07dH
	DB	0efH
	DB	07dH
	DB	0efH
	DB	07eH
	DB	0f7H
	DB	07dH
	DB	0efH
	DB	07eH
	DB	0f7H
	DB	07eH
	DB	0f7H
	DB	07dH
	DB	0efH
	DB	07eH
	DB	0f7H
	DB	07eH
	DB	0f7H
	DB	07dH
	DB	0efH
	DB	07dH
	DB	0efH
	DB	07eH
	DB	0f7H
	DB	07dH
	DB	0efH
	DB	07dH
	DB	0efH
	DB	07eH
	DB	0f7H
	DB	07dH
	DB	0efH
	DB	07eH
	DB	0f7H
	DB	07dH
	DB	0efH
	DB	07dH
	DB	0efH
	DB	07eH
	DB	0f7H
	DB	07dH
	DB	0efH
	DB	07dH
	DB	0efH
	DB	07eH
	DB	0f7H
	DB	07dH
	DB	0efH
	DB	07eH
	DB	0f7H
	DB	07dH
	DB	0efH
	DB	07eH
	DB	0f7H
	DB	07eH
	DB	0f7H
	DB	07dH
	DB	0efH
	DB	07eH
	DB	0f7H
	DB	07dH
	DB	0efH
	DB	07eH
	DB	0f7H
	DB	07dH
	DB	0efH
	DB	07eH
	DB	0f7H
	DB	07dH
	DB	0efH
	DB	07eH
	DB	0f7H
	DB	07eH
	DB	0f7H
	DB	07dH
	DB	0efH
	DB	07eH
	DB	0f7H
	DB	07eH
	DB	0f7H
	DB	07dH
	DB	0efH
	DB	07eH
	DB	0f7H
	DB	07dH
	DB	0efH
	DB	07dH
	DB	0efH
	DB	07eH
	DB	0f7H
	DB	07dH
	DB	0efH
	DB	07eH
	DB	0f7H
	DB	07dH
	DB	0efH
	DB	07dH
	DB	0efH
	DB	07eH
	DB	0f7H
	DB	07dH
	DB	0efH
	DB	07dH
	DB	0efH
	DB	07eH
	DB	0f7H
	DB	07dH
	DB	0efH
	DB	07dH
	DB	0efH
	DB	07eH
	DB	0f7H
	DB	07dH
	DB	0efH
	DB	07dH
	DB	0efH
	DB	07eH
	DB	0f7H
	DB	07dH
	DB	0efH
	DB	07eH
	DB	0f7H
	DB	07dH
	DB	0efH
	DB	07eH
	DB	0f7H
	DB	07dH
	DB	0efH
	DB	07dH
	DB	0efH
	DB	07eH
	DB	0f7H
	DB	07dH
	DB	0efH
	DB	07dH
	DB	0efH
	DB	07eH
	DB	0f7H
	DB	07dH
	DB	0efH
	DB	07eH
	DB	0f7H
	DB	07dH
	DB	0efH
	DB	07dH
	DB	0efH
	DB	07eH
	DB	0f7H
	DB	07dH
	DB	0efH
	DB	07dH
	DB	0efH
	DB	07eH
	DB	0f7H
	DB	07dH
	DB	0efH
	DB	07dH
	DB	0efH
	DB	07eH
	DB	0f7H
	DB	07dH
	DB	0efH
	DB	07dH
	DB	0efH
	DB	07eH
	DB	0f7H
	DB	07dH
	DB	0efH
	DB	07eH
	DB	0f7H
	DB	07dH
	DB	0efH
	DB	07eH
	DB	0f7H
	DB	07dH
	DB	0efH
	DB	07dH
	DB	0efH
	DB	07eH
	DB	0f7H
	DB	07eH
	DB	0f7H
	DB	07dH
	DB	0efH
	DB	07dH
	DB	0efH
	DB	07eH
	DB	0f7H
	DB	07dH
	DB	0efH
	DB	07dH
	DB	0efH
	DB	07eH
	DB	0f7H
	DB	07dH
	DB	0efH
	DB	07eH
	DB	0f7H
	DB	07eH
	DB	0f7H
	DB	07dH
	DB	0efH
	DB	07dH
	DB	0efH
	DB	07eH
	DB	0f7H
	DB	07dH
	DB	0efH
	DB	07eH
	DB	0f7H
	DB	07eH
	DB	0f7H
	DB	07dH
	DB	0efH
	DB	07eH
	DB	0f7H
	DB	07eH
	DB	0f7H
	DB	07dH
	DB	0efH
	DB	07eH
	DB	0f7H
	DB	07dH
	DB	0efH
	DB	07eH
	DB	0f7H
	DB	07dH
	DB	0efH
	DB	07eH
	DB	0f7H
	DB	07dH
	DB	0efH
	DB	07eH
	DB	0f7H
	DB	07dH
	DB	0efH
	DB	07eH
	DB	0f7H
	DB	07dH
	DB	0efH
	DB	07eH
	DB	0f7H
	DB	07eH
	DB	0f7H
	DB	07eH
	DB	0f7H
	DB	07dH
	DB	0efH
	DB	07eH
	DB	0f7H
	DB	07dH
	DB	0efH
	DB	07dH
	DB	0efH
	DB	07eH
	DB	0f7H
	DB	07eH
	DB	0f7H
	DB	07dH
	DB	0efH
	DB	07eH
	DB	0f7H
	DB	07dH
	DB	0efH
	DB	07dH
	DB	0efH
	DB	07eH
	DB	0f7H
	DB	07dH
	DB	0efH
	DB	07eH
	DB	0f7H
	DB	07eH
	DB	0f7H
	DB	07dH
	DB	0efH
	DB	07dH
	DB	0efH
	DB	07eH
	DB	0f7H
	DB	07dH
	DB	0efH
	DB	07dH
	DB	0efH
	DB	07eH
	DB	0f7H
	DB	07eH
	DB	0f7H
	DB	07dH
	DB	0efH
	DB	07dH
	DB	0efH
	DB	07eH
	DB	0f7H
	DB	07eH
	DB	0f7H
	DB	07dH
	DB	0efH
	DB	07eH
	DB	0f7H
	DB	07eH
	DB	0f7H
	DB	07dH
	DB	0efH
	DB	07dH
	DB	0efH
	DB	07eH
	DB	0f7H
	DB	07dH
	DB	0efH
	DB	07eH
	DB	0f7H
	DB	07eH
	DB	0f7H
	DB	07dH
	DB	0efH
	DB	07eH
	DB	0f7H
	DB	07dH
	DB	0efH
	DB	07dH
	DB	0efH
	DB	07eH
	DB	0f7H
	DB	07dH
	DB	0efH
	DB	07dH
	DB	0efH
	DB	07eH
	DB	0f7H
	DB	07dH
	DB	0efH
	DB	07dH
	DB	0efH
	DB	07eH
	DB	0f7H
	DB	07dH
	DB	0efH
	DB	07eH
	DB	0f7H
	DB	07eH
	DB	0f7H
	DB	07dH
	DB	0efH
	DB	07eH
	DB	0f7H
	DB	07dH
	DB	0efH
	DB	07dH
	DB	0efH
	DB	07eH
	DB	0f7H
	DB	07dH
	DB	0efH
	DB	07dH
	DB	0efH
	DB	07eH
	DB	0f7H
	DB	07dH
	DB	0efH
	DB	07eH
	DB	0f7H
	DB	07dH
	DB	0efH
	DB	07eH
	DB	0f7H
	DB	07dH
	DB	0efH
	DB	07dH
	DB	0efH
	DB	07eH
	DB	0f7H
	DB	07dH
	DB	0efH
	DB	07eH
	DB	0f7H
	DB	07eH
	DB	0f7H
	DB	07dH
	DB	0efH
	DB	07eH
	DB	0f7H
	DB	07eH
	DB	0f7H
	DB	07dH
	DB	0efH
	DB	07eH
	DB	0f7H
	DB	07dH
	DB	0efH
	DB	07dH
	DB	0efH
	DB	07eH
	DB	0f7H
	DB	07dH
	DB	0efH
	DB	07dH
	DB	0efH
	DB	07eH
	DB	0f7H
	DB	07dH
	DB	0efH
	DB	07eH
	DB	0f7H
	DB	07dH
	DB	0efH
	DB	07eH
	DB	0f7H
	DB	07eH
	DB	0f7H
	DB	07dH
	DB	0efH
	DB	07eH
	DB	0f7H
	DB	07eH
	DB	0f7H
	DB	07dH
	DB	0efH
	DB	07eH
	DB	0f7H
	DB	07dH
	DB	0efH
	DB	07dH
	DB	0efH
	DB	07eH
	DB	0f7H
	DB	07eH
	DB	0f7H
	DB	07dH
	DB	0efH
	DB	07dH
	DB	0efH
	DB	07eH
	DB	0f7H
	DB	07eH
	DB	0f7H
	DB	07dH
	DB	0efH
	DB	07eH
	DB	0f7H
	DB	07eH
	DB	0f7H
	DB	07dH
	DB	0efH
	DB	07dH
	DB	0efH
	DB	07eH
	DB	0f7H
	DB	07dH
	DB	0efH
	DB	07dH
	DB	0efH
	DB	07eH
	DB	0f7H
	DB	07eH
	DB	0f7H
	DB	07dH
	DB	0efH
	DB	07dH
	DB	0efH
	DB	07eH
	DB	0f7H
	DB	07eH
	DB	0f7H
	DB	07dH
	DB	0efH
	DB	07dH
	DB	0efH
	DB	07eH
	DB	0f7H
	DB	07dH
	DB	0efH
	DB	07dH
	DB	0efH
	DB	07eH
	DB	0f7H
	DB	07dH
	DB	0efH
	DB	07eH
	DB	0f7H
	DB	07dH
	DB	0efH
	DB	07dH
	DB	0efH
	DB	07eH
	DB	0f7H
	DB	07dH
	DB	0efH
	DB	07eH
	DB	0f7H
	DB	07dH
	DB	0efH
	DB	07eH
	DB	0f7H
	DB	07dH
	DB	0efH
	DB	07dH
	DB	0efH
	DB	07eH
	DB	0f7H
	DB	07eH
	DB	0f7H
	DB	07dH
	DB	0efH
	DB	07dH
	DB	0efH
	DB	07eH
	DB	0f7H
	DB	07dH
	DB	0efH
	DB	07dH
	DB	0efH
	DB	07eH
	DB	0f7H
	DB	07dH
	DB	0efH
	DB	07dH
	DB	0efH
	DB	07eH
	DB	0f7H
	DB	07eH
	DB	0f7H
	DB	07dH
	DB	0efH
	DB	07eH
	DB	0f7H
	DB	07dH
	DB	0efH
	DB	07dH
	DB	0efH
	DB	07eH
	DB	0f7H
	DB	07eH
	DB	0f7H
	DB	07dH
	DB	0efH
	DB	07dH
	DB	0efH
	DB	07dH
	DB	0efH
	DB	07eH
	DB	0f7H
	DB	07eH
	DB	0f7H
	DB	07dH
	DB	0efH
	DB	07eH
	DB	0f7H
	DB	07eH
	DB	0f7H
	DB	07dH
	DB	0efH
	DB	07dH
	DB	0efH
	DB	07eH
	DB	0f7H
	DB	07dH
	DB	0efH
	DB	07eH
	DB	0f7H
	DB	07eH
	DB	0f7H
	DB	07dH
	DB	0efH
	DB	07eH
	DB	0f7H
	DB	07eH
	DB	0f7H
	DB	07dH
	DB	0efH
	DB	07eH
	DB	0f7H
	DB	07eH
	DB	0f7H
	DB	07dH
	DB	0efH
	DB	07eH
	DB	0f7H
	DB	07dH
	DB	0efH
	DB	07dH
	DB	0efH
	DB	07eH
	DB	0f7H
	DB	07dH
	DB	0efH
	DB	07eH
	DB	0f7H
	DB	07eH
	DB	0f7H
	DB	07dH
	DB	0efH
	DB	07eH
	DB	0f7H
	DB	07dH
	DB	0efH
	DB	07dH
	DB	0efH
	DB	07eH
	DB	0f7H
	DB	07dH
	DB	0efH
	DB	07eH
	DB	0f7H
	DB	07dH
	DB	0efH
	DB	07eH
	DB	0f7H
	DB	07dH
	DB	0efH
	DB	07dH
	DB	0efH
	DB	07eH
	DB	0f7H
	DB	07eH
	DB	0f7H
	DB	07dH
	DB	0efH
	DB	07eH
	DB	0f7H
	DB	07dH
	DB	0efH
	DB	07eH
	DB	0f7H
	DB	07eH
	DB	0f7H
	DB	07dH
	DB	0efH
	DB	07eH
	DB	0f7H
	DB	07eH
	DB	0f7H
	DB	07dH
	DB	0efH
	DB	07dH
	DB	0efH
	DB	07eH
	DB	0f7H
	DB	07dH
	DB	0efH
	DB	07eH
	DB	0f7H
	DB	07dH
	DB	0efH
	DB	07eH
	DB	0f7H
	DB	07dH
	DB	0efH
	DB	07dH
	DB	0efH
	DB	07eH
	DB	0f7H
	DB	07dH
	DB	0efH
	DB	07dH
	DB	0efH
	DB	07eH
	DB	0f7H
	DB	07dH
	DB	0efH
	DB	07eH
	DB	0f7H
	DB	07eH
	DB	0f7H
	DB	07dH
	DB	0efH
	DB	07dH
	DB	0efH
	DB	07eH
	DB	0f7H
	DB	07eH
	DB	0f7H
	DB	07dH
	DB	0efH
	DB	07eH
	DB	0f7H
	DB	07eH
	DB	0f7H
	DB	07dH
	DB	0efH
	DB	07eH
	DB	0f7H
	DB	07dH
	DB	0efH
	DB	07dH
	DB	0efH
	DB	07dH
	DB	0efH
	DB	07eH
	DB	0f7H
	DB	07eH
	DB	0f7H
	DB	07dH
	DB	0efH
	DB	07eH
	DB	0f7H
	DB	07eH
	DB	0f7H
	DB	07dH
	DB	0efH
	DB	07eH
	DB	0f7H
	DB	07eH
	DB	0f7H
	DB	07dH
	DB	0efH
	DB	07dH
	DB	0efH
	DB	07eH
	DB	0f7H
	DB	07dH
	DB	0efH
	DB	07eH
	DB	0f7H
	DB	07dH
	DB	0efH
	DB	07eH
	DB	0f7H
	DB	07dH
	DB	0efH
	DB	07dH
	DB	0efH
	DB	07eH
	DB	0f7H
	DB	07dH
	DB	0efH
	DB	07dH
	DB	0efH
	DB	07eH
	DB	0f7H
	DB	07dH
	DB	0efH
	DB	07eH
	DB	0f7H
	DB	07eH
	DB	0f7H
	DB	07dH
	DB	0efH
	DB	07eH
	DB	0f7H
	DB	07eH
	DB	0f7H
	DB	07dH
	DB	0efH
	DB	07eH
	DB	0f7H
	DB	07dH
	DB	0efH
	DB	07eH
	DB	0f7H
	DB	07dH
	DB	0efH
	DB	07eH
	DB	0f7H
	DB	07eH
	DB	0f7H
	DB	07dH
	DB	0efH
	DB	07dH
	DB	0efH
	DB	07eH
	DB	0f7H
	DB	07dH
	DB	0efH
	DB	07eH
	DB	0f7H
	DB	07dH
	DB	0efH
	DB	07eH
	DB	0f7H
	DB	07dH
	DB	0efH
	DB	07eH
	DB	0f7H
	DB	07dH
	DB	0efH
	DB	07dH
	DB	0efH
	DB	07eH
	DB	0f7H
	DB	07dH
	DB	0efH
	DB	07dH
	DB	0efH
	DB	07eH
	DB	0f7H
	DB	07eH
	DB	0f7H
	DB	07dH
	DB	0efH
	DB	07eH
	DB	0f7H
	DB	07eH
	DB	0f7H
	DB	07dH
	DB	0efH
	DB	07eH
	DB	0f7H
	DB	07dH
	DB	0efH
	DB	07eH
	DB	0f7H
	DB	07eH
	DB	0f7H
	DB	07dH
	DB	0efH
	DB	07eH
	DB	0f7H
	DB	07eH
	DB	0f7H
	DB	07dH
	DB	0efH
	DB	07eH
	DB	0f7H
	DB	07eH
	DB	0f7H
	DB	07dH
	DB	0efH
	DB	07eH
	DB	0f7H
	DB	07dH
	DB	0efH
	DB	07eH
	DB	0f7H
	DB	07eH
	DB	0f7H
	DB	07dH
	DB	0efH
	DB	07eH
	DB	0f7H
	DB	07dH
	DB	0efH
	DB	07dH
	DB	0efH
	DB	07eH
	DB	0f7H
	DB	07eH
	DB	0f7H
	DB	07dH
	DB	0efH
	DB	07dH
	DB	0efH
	DB	07eH
	DB	0f7H
	DB	07dH
	DB	0efH
	DB	07dH
	DB	0efH
	DB	07eH
	DB	0f7H
	DB	07dH
	DB	0efH
	DB	07eH
	DB	0f7H
	DB	07eH
	DB	0f7H
	DB	07dH
	DB	0efH
	DB	07dH
	DB	0efH
	DB	07eH
	DB	0f7H
	DB	07dH
	DB	0efH
	DB	07eH
	DB	0f7H
	DB	07eH
	DB	0f7H
	DB	07dH
	DB	0efH
	DB	07eH
	DB	0f7H
	DB	07eH
	DB	0f7H
	DB	07dH
	DB	0efH
	DB	07dH
	DB	0efH
	DB	07eH
	DB	0f7H
	DB	07dH
	DB	0efH
	DB	07eH
	DB	0f7H
	DB	07eH
	DB	0f7H
	DB	07dH
	DB	0efH
	DB	07dH
	DB	0efH
	DB	07eH
	DB	0f7H
	DB	07eH
	DB	0f7H
	DB	07dH
	DB	0efH
	DB	07eH
	DB	0f7H
	DB	07dH
	DB	0efH
	DB	07dH
	DB	0efH
	DB	07eH
	DB	0f7H
	DB	07dH
	DB	0efH
	DB	07dH
	DB	0efH
	DB	07eH
	DB	0f7H
	DB	07dH
	DB	0efH
	DB	07dH
	DB	0efH
	DB	07eH
	DB	0f7H
	DB	07dH
	DB	0efH
	DB	07eH
	DB	0f7H
	DB	07eH
	DB	0f7H
	DB	07dH
	DB	0efH
	DB	07dH
	DB	0efH
	DB	07eH
	DB	0f7H
	DB	07dH
	DB	0efH
	DB	07dH
	DB	0efH
	DB	07eH
	DB	0f7H
	DB	07dH
	DB	0efH
	DB	07eH
	DB	0f7H
	DB	07dH
	DB	0efH
	DB	07dH
	DB	0efH
	DB	07eH
	DB	0f7H
	DB	07dH
	DB	0efH
	DB	07dH
	DB	0efH
	DB	07eH
	DB	0f7H
	DB	07eH
	DB	0f7H
	DB	07dH
	DB	0efH
	DB	07eH
	DB	0f7H
	DB	07dH
	DB	0efH
	DB	07eH
	DB	0f7H
	DB	07dH
	DB	0efH
	DB	07eH
	DB	0f7H
	DB	07dH
	DB	0efH
	DB	07dH
	DB	0efH
	DB	07dH
	DB	0efH
	DB	07eH
	DB	0f7H
	DB	07dH
	DB	0efH
	DB	07eH
	DB	0f7H
	DB	07eH
	DB	0f7H
	DB	07dH
	DB	0efH
	DB	07eH
	DB	0f7H
	DB	07dH
	DB	0efH
	DB	07eH
	DB	0f7H
	DB	07eH
	DB	0f7H
	DB	07dH
	DB	0efH
	DB	07dH
	DB	0efH
	DB	07eH
	DB	0f7H
	DB	07eH
	DB	0f7H
	DB	07dH
	DB	0efH
	DB	07eH
	DB	0f7H
	DB	07eH
	DB	0f7H
	DB	07dH
	DB	0efH
	DB	07dH
	DB	0efH
	DB	07eH
	DB	0f7H
	DB	07dH
	DB	0efH
	DB	07dH
	DB	0efH
	DB	07eH
	DB	0f7H
	DB	07dH
	DB	0efH
	DB	07eH
	DB	0f7H
	DB	07dH
	DB	0efH
	DB	07eH
	DB	0f7H
	DB	07dH
	DB	0efH
	DB	07eH
	DB	0f7H
	DB	07dH
	DB	0efH
	DB	07dH
	DB	0efH
	DB	07eH
	DB	0f7H
	DB	07dH
	DB	0efH
	DB	07dH
	DB	0efH
	DB	07eH
	DB	0f7H
	DB	07dH
	DB	0efH
	DB	07eH
	DB	0f7H
	DB	07eH
	DB	0f7H
	DB	07dH
	DB	0efH
	DB	07eH
	DB	0f7H
	DB	07dH
	DB	0efH
	DB	07eH
	DB	0f7H
	DB	07dH
	DB	0efH
	DB	07eH
	DB	0f7H
	DB	07eH
	DB	0f7H
	DB	07dH
	DB	0efH
	DB	07eH
	DB	0f7H
	DB	07eH
	DB	0f7H
	DB	07dH
	DB	0efH
	DB	07eH
	DB	0f7H
	DB	07eH
	DB	0f7H
	DB	07dH
	DB	0efH
	DB	07eH
	DB	0f7H
	DB	07eH
	DB	0f7H
	DB	07dH
	DB	0efH
	DB	07eH
	DB	0f7H
	DB	07dH
	DB	0efH
	DB	07eH
	DB	0f7H
	DB	07eH
	DB	0f7H
	DB	07dH
	DB	0efH
	DB	07eH
	DB	0f7H
	DB	07eH
	DB	0f7H
	DB	07dH
	DB	0efH
	DB	07eH
	DB	0f7H
	DB	07dH
	DB	0efH
	DB	07eH
	DB	0f7H
	DB	07dH
	DB	0efH
	DB	07eH
	DB	0f7H
	DB	07eH
	DB	0f7H
	DB	07dH
	DB	0efH
	DB	07eH
	DB	0f7H
	DB	07eH
	DB	0f7H
	DB	07dH
	DB	0efH
	DB	07eH
	DB	0f7H
	DB	07dH
	DB	0efH
	DB	07eH
	DB	0f7H
	DB	07eH
	DB	0f7H
	DB	07dH
	DB	0efH
	DB	07eH
	DB	0f7H
	DB	07dH
	DB	0efH
	DB	07dH
	DB	0efH
	DB	07eH
	DB	0f7H
	DB	07dH
	DB	0efH
	DB	07eH
	DB	0f7H
	DB	07dH
	DB	0efH
	DB	07dH
	DB	0efH
	DB	07eH
	DB	0f7H
	DB	07dH
	DB	0efH
	DB	07eH
	DB	0f7H
	DB	07eH
	DB	0f7H
	DB	07dH
	DB	0efH
	DB	07eH
	DB	0f7H
	DB	07eH
	DB	0f7H
	DB	07dH
	DB	0efH
	DB	07dH
	DB	0efH
	DB	07eH
	DB	0f7H
	DB	07dH
	DB	0efH
	DB	07eH
	DB	0f7H
	DB	07dH
	DB	0efH
	DB	07dH
	DB	0efH
	DB	07eH
	DB	0f7H
	DB	07dH
	DB	0efH
	DB	07dH
	DB	0efH
	DB	07eH
	DB	0f7H
	DB	07dH
	DB	0efH
	DB	07eH
	DB	0f7H
	DB	07dH
	DB	0efH
	DB	07eH
	DB	0f7H
	DB	07dH
	DB	0efH
	DB	07eH
	DB	0f7H
	DB	07dH
	DB	0efH
	DB	07eH
	DB	0f7H
	DB	07dH
	DB	0efH
	DB	07eH
	DB	0f7H
	DB	07dH
	DB	0efH
	DB	07dH
	DB	0efH
	DB	07eH
	DB	0f7H
	DB	07dH
	DB	0efH
	DB	07dH
	DB	0efH
	DB	07eH
	DB	0f7H
	DB	07dH
	DB	0efH
	DB	07eH
	DB	0f7H
	DB	07dH
	DB	0efH
	DB	07dH
	DB	0efH
	DB	07eH
	DB	0f7H
	DB	07dH
	DB	0efH
	DB	07eH
	DB	0f7H
	DB	07eH
	DB	0f7H
	DB	07dH
	DB	0efH
	DB	07dH
	DB	0efH
	DB	07dH
	DB	0efH
	DB	07dH
	DB	0efH
	DB	07eH
	DB	0f7H
	DB	07dH
	DB	0efH
	DB	07eH
	DB	0f7H
	DB	07eH
	DB	0f7H
	DB	07dH
	DB	0efH
	DB	07dH
	DB	0efH
	DB	07eH
	DB	0f7H
	DB	07dH
	DB	0efH
	DB	07dH
	DB	0efH
	DB	07eH
	DB	0f7H
	DB	07dH
	DB	0efH
	DB	07dH
	DB	0efH
	DB	07eH
	DB	0f7H
	DB	07dH
	DB	0efH
	DB	07eH
	DB	0f7H
	DB	07dH
	DB	0efH
	DB	07eH
	DB	0f7H
	DB	07dH
	DB	0efH
	DB	07dH
	DB	0efH
	DB	07eH
	DB	0f7H
	DB	07dH
	DB	0efH
	DB	07dH
	DB	0efH
	DB	07eH
	DB	0f7H
	DB	07eH
	DB	0f7H
	DB	07dH
	DB	0efH
	DB	07eH
	DB	0f7H
	DB	07eH
	DB	0f7H
	DB	07dH
	DB	0efH
	DB	07eH
	DB	0f7H
	DB	07eH
	DB	0f7H
	DB	07dH
	DB	0efH
	DB	07eH
	DB	0f7H
	DB	07dH
	DB	0efH
	DB	07dH
	DB	0efH
	DB	07eH
	DB	0f7H
	DB	07eH
	DB	0f7H
	DB	07dH
	DB	0efH
	DB	07eH
	DB	0f7H
	DB	07eH
	DB	0f7H
	DB	07dH
	DB	0efH
	DB	07eH
	DB	0f7H
	DB	07eH
	DB	0f7H
	DB	07dH
	DB	0efH
	DB	07eH
	DB	0f7H
	DB	07dH
	DB	0efH
	DB	07eH
	DB	0f7H
	DB	07eH
	DB	0f7H
	DB	07dH
	DB	0efH
	DB	07eH
	DB	0f7H
	DB	07dH
	DB	0efH
	DB	07dH
	DB	0efH
	DB	07eH
	DB	0f7H
	DB	07dH
	DB	0efH
	DB	07dH
	DB	0efH
	DB	07eH
	DB	0f7H
	DB	07dH
	DB	0efH
	DB	07eH
	DB	0f7H
	DB	07eH
	DB	0f7H
	DB	07dH
	DB	0efH
	DB	07eH
	DB	0f7H
	DB	07eH
	DB	0f7H
	DB	07dH
	DB	0efH
	DB	07eH
	DB	0f7H
	DB	07dH
	DB	0efH
	DB	07eH
	DB	0f7H
	DB	07dH
	DB	0efH
	DB	07dH
	DB	0efH
	DB	07eH
	DB	0f7H
	DB	07dH
	DB	0efH
	DB	07dH
	DB	0efH
	DB	07eH
	DB	0f7H
	DB	07dH
	DB	0efH
	DB	07eH
	DB	0f7H
	DB	07eH
	DB	0f7H
	DB	07dH
	DB	0efH
	DB	07dH
	DB	0efH
	DB	07eH
	DB	0f7H
	DB	07dH
	DB	0efH
	DB	07eH
	DB	0f7H
	DB	07dH
	DB	0efH
	DB	07dH
	DB	0efH
	DB	07eH
	DB	0f7H
	DB	07dH
	DB	0efH
	DB	07dH
	DB	0efH
	DB	07eH
	DB	0f7H
	DB	07eH
	DB	0f7H
	DB	07dH
	DB	0efH
	DB	07eH
	DB	0f7H
	DB	07eH
	DB	0f7H
	DB	07dH
	DB	0efH
	DB	07dH
	DB	0efH
	DB	07eH
	DB	0f7H
	DB	07dH
	DB	0efH
	DB	07dH
	DB	0efH
	DB	07eH
	DB	0f7H
	DB	07dH
	DB	0efH
	DB	07dH
	DB	0efH
	DB	07eH
	DB	0f7H
	DB	07eH
	DB	0f7H
	DB	07dH
	DB	0efH
	DB	07eH
	DB	0f7H
	DB	07dH
	DB	0efH
	DB	07eH
	DB	0f7H
	DB	07dH
	DB	0efH
	DB	07eH
	DB	0f7H
	DB	07eH
	DB	0f7H
	DB	07dH
	DB	0efH
	DB	07eH
	DB	0f7H
	DB	07dH
	DB	0efH
	DB	07eH
	DB	0f7H
	DB	07dH
	DB	0efH
	DB	07dH
	DB	0efH
	DB	07eH
	DB	0f7H
	DB	07dH
	DB	0efH
	DB	07eH
	DB	0f7H
	DB	07eH
	DB	0f7H
	DB	07dH
	DB	0efH
	DB	07eH
	DB	0f7H
	DB	07eH
	DB	0f7H
	DB	07dH
	DB	0efH
	DB	07eH
	DB	0f7H
	DB	07eH
	DB	0f7H
	DB	07dH
	DB	0efH
	DB	07eH
	DB	0f7H
	DB	07dH
	DB	0efH
	DB	07dH
	DB	0efH
	DB	07eH
	DB	0f7H
	DB	07eH
	DB	0f7H
	DB	07dH
	DB	0efH
	DB	07eH
	DB	0f7H
	DB	07dH
	DB	0efH
	DB	07eH
	DB	0f7H
	DB	07eH
	DB	0f7H
	DB	07dH
	DB	0efH
	DB	07dH
	DB	0efH
	DB	07eH
	DB	0f7H
	DB	07dH
	DB	0efH
	DB	07dH
	DB	0efH
	DB	07eH
	DB	0f7H
	DB	07eH
	DB	0f7H
	DB	07dH
	DB	0efH
	DB	07dH
	DB	0efH
	DB	07eH
	DB	0f7H
	DB	07dH
	DB	0efH
	DB	07dH
	DB	0efH
	DB	07eH
	DB	0f7H
	DB	07dH
	DB	0efH
	DB	07dH
	DB	0efH
	DB	07eH
	DB	0f7H
	DB	07dH
	DB	0efH
	DB	07dH
	DB	0efH
	DB	07eH
	DB	0f7H
	DB	07eH
	DB	0f7H
	DB	07dH
	DB	0efH
	DB	07eH
	DB	0f7H
	DB	07dH
	DB	0efH
	DB	07dH
	DB	0efH
	DB	07dH
	DB	0efH
	DB	07eH
	DB	0f7H
	DB	07eH
	DB	0f7H
	DB	07dH
	DB	0efH
	DB	07eH
	DB	0f7H
	DB	07eH
	DB	0f7H
	DB	07dH
	DB	0efH
	DB	07eH
	DB	0f7H
	DB	07dH
	DB	0efH
	DB	07eH
	DB	0f7H
	DB	07eH
	DB	0f7H
	DB	07dH
	DB	0efH
	DB	07eH
	DB	0f7H
	DB	07dH
	DB	0efH
	DB	07dH
	DB	0efH
	DB	07eH
	DB	0f7H
	DB	07eH
	DB	0f7H
	DB	07dH
	DB	0efH
	DB	07dH
	DB	0efH
	DB	07eH
	DB	0f7H
	DB	07dH
	DB	0efH
	DB	07dH
	DB	0efH
	DB	07eH
	DB	0f7H
	DB	07eH
	DB	0f7H
	DB	07dH
	DB	0efH
	DB	07dH
	DB	0efH
	DB	07eH
	DB	0f7H
	DB	07dH
	DB	0efH
	DB	07eH
	DB	0f7H
	DB	07eH
	DB	0f7H
	DB	07dH
	DB	0efH
	DB	07eH
	DB	0f7H
	DB	07eH
	DB	0f7H
	DB	07dH
	DB	0efH
	DB	07eH
	DB	0f7H
	DB	07eH
	DB	0f7H
	DB	07dH
	DB	0efH
	DB	07dH
	DB	0efH
	DB	07eH
	DB	0f7H
	DB	07eH
	DB	0f7H
	DB	07dH
	DB	0efH
	DB	07dH
	DB	0efH
	DB	07eH
	DB	0f7H
	DB	07dH
	DB	0efH
	DB	07dH
	DB	0efH
	DB	07eH
	DB	0f7H
	DB	07eH
	DB	0f7H
	DB	07dH
	DB	0efH
	DB	07eH
	DB	0f7H
	DB	07eH
	DB	0f7H
	DB	07dH
	DB	0efH
	DB	07dH
	DB	0efH
	DB	07eH
	DB	0f7H
	DB	07dH
	DB	0efH
	DB	07dH
	DB	0efH
	DB	07eH
	DB	0f7H
	DB	07dH
	DB	0efH
	DB	07dH
	DB	0efH
	DB	07eH
	DB	0f7H
	DB	07eH
	DB	0f7H
	DB	07dH
	DB	0efH
	DB	07eH
	DB	0f7H
	DB	07eH
	DB	0f7H
	DB	07dH
	DB	0efH
	DB	07eH
	DB	0f7H
	DB	07eH
	DB	0f7H
	DB	07dH
	DB	0efH
	DB	07eH
	DB	0f7H
	DB	07eH
	DB	0f7H
	DB	07eH
	DB	0f7H
	DB	07dH
	DB	0efH
	DB	07dH
	DB	0efH
	DB	07eH
	DB	0f7H
	DB	07dH
	DB	0efH
	DB	07dH
	DB	0efH
	DB	07eH
	DB	0f7H
	DB	07dH
	DB	0efH
	DB	07dH
	DB	0efH
	DB	07eH
	DB	0f7H
	DB	07dH
	DB	0efH
	DB	07eH
	DB	0f7H
	DB	07dH
	DB	0efH
	DB	07dH
	DB	0efH
	DB	07eH
	DB	0f7H
	DB	07eH
	DB	0f7H
	DB	07dH
	DB	0efH
	DB	07eH
	DB	0f7H
	DB	07dH
	DB	0efH
	DB	07dH
	DB	0efH
	DB	07eH
	DB	0f7H
	DB	07eH
	DB	0f7H
	DB	07dH
	DB	0efH
	DB	07eH
	DB	0f7H
	DB	07eH
	DB	0f7H
	DB	07dH
	DB	0efH
	DB	07eH
	DB	0f7H
	DB	07eH
	DB	0f7H
	DB	07dH
	DB	0efH
	DB	07eH
	DB	0f7H
	DB	07eH
	DB	0f7H
	DB	07dH
	DB	0efH
	DB	07dH
	DB	0efH
	DB	07eH
	DB	0f7H
	DB	07dH
	DB	0efH
	DB	07dH
	DB	0efH
	DB	07eH
	DB	0f7H
	DB	07eH
	DB	0f7H
	DB	07dH
	DB	0efH
	DB	07dH
	DB	0efH
	DB	07eH
	DB	0f7H
	DB	07dH
	DB	0efH
	DB	07dH
	DB	0efH
	DB	07eH
	DB	0f7H
	DB	07dH
	DB	0efH
	DB	07dH
	DB	0efH
	DB	07eH
	DB	0f7H
	DB	07dH
	DB	0efH
	DB	07dH
	DB	0efH
	DB	07eH
	DB	0f7H
	DB	07dH
	DB	0efH
	DB	07eH
	DB	0f7H
	DB	07eH
	DB	0f7H
	DB	07dH
	DB	0efH
	DB	07eH
	DB	0f7H
	DB	07dH
	DB	0efH
	DB	07eH
	DB	0f7H
	DB	07eH
	DB	0f7H
	DB	07dH
	DB	0efH
	DB	07eH
	DB	0f7H
	DB	07dH
	DB	0efH
	DB	07eH
	DB	0f7H
	DB	07dH
	DB	0efH
	DB	07dH
	DB	0efH
	DB	07eH
	DB	0f7H
	DB	07eH
	DB	0f7H
	DB	07dH
	DB	0efH
	DB	07eH
	DB	0f7H
	DB	07dH
	DB	0efH
	DB	07dH
	DB	0efH
	DB	07eH
	DB	0f7H
	DB	07dH
	DB	0efH
	DB	07dH
	DB	0efH
	DB	07eH
	DB	0f7H
	DB	07eH
	DB	0f7H
	DB	07dH
	DB	0efH
	DB	07eH
	DB	0f7H
	DB	07eH
	DB	0f7H
	DB	07dH
	DB	0efH
	DB	07eH
	DB	0f7H
	DB	07eH
	DB	0f7H
	DB	07dH
	DB	0efH
	DB	07eH
	DB	0f7H
	DB	07dH
	DB	0efH
	DB	07dH
	DB	0efH
	DB	07eH
	DB	0f7H
	DB	07eH
	DB	0f7H
	DB	07dH
	DB	0efH
	DB	07eH
	DB	0f7H
	DB	07eH
	DB	0f7H
	DB	07dH
	DB	0efH
	DB	07eH
	DB	0f7H
	DB	07eH
	DB	0f7H
	DB	07dH
	DB	0efH
	DB	07eH
	DB	0f7H
	DB	07dH
	DB	0efH
	DB	07dH
	DB	0efH
	DB	07eH
	DB	0f7H
	DB	07eH
	DB	0f7H
	DB	07dH
	DB	0efH
	DB	07eH
	DB	0f7H
	DB	07eH
	DB	0f7H
	DB	07dH
	DB	0efH
	DB	07eH
	DB	0f7H
	DB	07dH
	DB	0efH
	DB	07eH
	DB	0f7H
	DB	07eH
	DB	0f7H
	DB	07eH
	DB	0f7H
	DB	07dH
	DB	0efH
	DB	07eH
	DB	0f7H
	DB	07eH
	DB	0f7H
	DB	07dH
	DB	0efH
	DB	07dH
	DB	0efH
	DB	07eH
	DB	0f7H
	DB	07dH
	DB	0efH
	DB	07eH
	DB	0f7H
	DB	07eH
	DB	0f7H
	DB	07dH
	DB	0efH
	DB	07eH
	DB	0f7H
	DB	07eH
	DB	0f7H
	DB	07eH
	DB	0f7H
	DB	07dH
	DB	0efH
	DB	07eH
	DB	0f7H
	DB	07dH
	DB	0efH
	DB	07dH
	DB	0efH
	DB	07eH
	DB	0f7H
	DB	07dH
	DB	0efH
	DB	07dH
	DB	0efH
	DB	07eH
	DB	0f7H
	DB	07dH
	DB	0efH
	DB	07eH
	DB	0f7H
	DB	07eH
	DB	0f7H
	DB	07dH
	DB	0efH
	DB	07eH
	DB	0f7H
	DB	07dH
	DB	0efH
	DB	07dH
	DB	0efH
	DB	07eH
	DB	0f7H
	DB	07dH
	DB	0efH
	DB	07eH
	DB	0f7H
	DB	07eH
	DB	0f7H
	DB	07dH
	DB	0efH
	DB	07eH
	DB	0f7H
	DB	07eH
	DB	0f7H
	DB	07dH
	DB	0efH
	DB	07eH
	DB	0f7H
	DB	07dH
	DB	0efH
	DB	07dH
	DB	0efH
	DB	07eH
	DB	0f7H
	DB	07dH
	DB	0efH
	DB	07eH
	DB	0f7H
	DB	07eH
	DB	0f7H
	DB	07dH
	DB	0efH
	DB	07eH
	DB	0f7H
	DB	07eH
	DB	0f7H
	DB	07dH
	DB	0efH
	DB	07eH
	DB	0f7H
	DB	07dH
	DB	0efH
	DB	07dH
	DB	0efH
	DB	07eH
	DB	0f7H
	DB	07dH
	DB	0efH
	DB	07eH
	DB	0f7H
	DB	07dH
	DB	0efH
	DB	07eH
	DB	0f7H
	DB	07dH
	DB	0efH
	DB	07dH
	DB	0efH
	DB	07eH
	DB	0f7H
	DB	07dH
	DB	0efH
	DB	07dH
	DB	0efH
	DB	07eH
	DB	0f7H
	DB	07dH
	DB	0efH
	DB	07dH
	DB	0efH
	DB	07eH
	DB	0f7H
	DB	07dH
	DB	0efH
	DB	07dH
	DB	0efH
	DB	07eH
	DB	0f7H
	DB	07dH
	DB	0efH
	DB	07eH
	DB	0f7H
	DB	07dH
	DB	0efH
	DB	07dH
	DB	0efH
	DB	07eH
	DB	0f7H
	DB	07dH
	DB	0efH
	DB	07dH
	DB	0efH
	DB	07eH
	DB	0f7H
	DB	07dH
	DB	0efH
	DB	07eH
	DB	0f7H
	DB	07eH
	DB	0f7H
	DB	07dH
	DB	0efH
	DB	07eH
	DB	0f7H
	DB	07dH
	DB	0efH
	DB	07eH
	DB	0f7H
	DB	07dH
	DB	0efH
	DB	07dH
	DB	0efH
	DB	07eH
	DB	0f7H
	DB	07dH
	DB	0efH
	DB	07eH
	DB	0f7H
	DB	07dH
	DB	0efH
	DB	07eH
	DB	0f7H
	DB	07dH
	DB	0efH
	DB	07dH
	DB	0efH
	DB	07eH
	DB	0f7H
	DB	07eH
	DB	0f7H
	DB	07dH
	DB	0efH
	DB	07eH
	DB	0f7H
	DB	07eH
	DB	0f7H
	DB	07dH
	DB	0efH
	DB	07eH
	DB	0f7H
	DB	07eH
	DB	0f7H
	DB	07dH
	DB	0efH
	DB	07eH
	DB	0f7H
	DB	07dH
	DB	0efH
	DB	07dH
	DB	0efH
	DB	07eH
	DB	0f7H
	DB	07dH
	DB	0efH
	DB	07dH
	DB	0efH
	DB	07eH
	DB	0f7H
	DB	07dH
	DB	0efH
	DB	07eH
	DB	0f7H
	DB	07dH
	DB	0efH
	DB	07eH
	DB	0f7H
	DB	07eH
	DB	0f7H
	DB	07dH
	DB	0efH
	DB	07eH
	DB	0f7H
	DB	07eH
	DB	0f7H
	DB	07dH
	DB	0efH
	DB	07eH
	DB	0f7H
	DB	07dH
	DB	0efH
	DB	07dH
	DB	0efH
	DB	07eH
	DB	0f7H
	DB	07eH
	DB	0f7H
	DB	07dH
	DB	0efH
	DB	07eH
	DB	0f7H
	DB	07dH
	DB	0efH
	DB	07eH
	DB	0f7H
	DB	07dH
	DB	0efH
	DB	07eH
	DB	0f7H
	DB	07eH
	DB	0f7H
	DB	07dH
	DB	0efH
	DB	07eH
	DB	0f7H
	DB	07eH
	DB	0f7H
	DB	07dH
	DB	0efH
	DB	07dH
	DB	0efH
	DB	07eH
	DB	0f7H
	DB	07eH
	DB	0f7H
	DB	07dH
	DB	0efH
	DB	07eH
	DB	0f7H
	DB	07eH
	DB	0f7H
	DB	07dH
	DB	0efH
	DB	07dH
	DB	0efH
	DB	07eH
	DB	0f7H
	DB	07eH
	DB	0f7H
	DB	07eH
	DB	0f7H
	DB	07eH
	DB	0f7H
	DB	07eH
	DB	0f7H
	DB	07dH
	DB	0efH
	DB	07eH
	DB	0f7H
	DB	07dH
	DB	0efH
	DB	07dH
	DB	0efH
	DB	07eH
	DB	0f7H
	DB	07eH
	DB	0f7H
	DB	07dH
	DB	0efH
	DB	07eH
	DB	0f7H
	DB	07eH
	DB	0f7H
	DB	07dH
	DB	0efH
	DB	07eH
	DB	0f7H
	DB	07eH
	DB	0f7H
	DB	07dH
	DB	0efH
	DB	07eH
	DB	0f7H
	DB	07dH
	DB	0efH
	DB	07dH
	DB	0efH
	DB	07eH
	DB	0f7H
	DB	07eH
	DB	0f7H
	DB	07dH
	DB	0efH
	DB	07eH
	DB	0f7H
	DB	07eH
	DB	0f7H
	DB	07dH
	DB	0efH
	DB	07eH
	DB	0f7H
	DB	07dH
	DB	0efH
	DB	07eH
	DB	0f7H
	DB	07dH
	DB	0efH
	DB	07dH
	DB	0efH
	DB	07eH
	DB	0f7H
	DB	07dH
	DB	0efH
	DB	07dH
	DB	0efH
	DB	07eH
	DB	0f7H
	DB	07dH
	DB	0efH
	DB	07eH
	DB	0f7H
	DB	07eH
	DB	0f7H
	DB	07dH
	DB	0efH
	DB	07dH
	DB	0efH
	DB	07eH
	DB	0f7H
	DB	07dH
	DB	0efH
	DB	07eH
	DB	0f7H
	DB	07dH
	DB	0efH
	DB	07dH
	DB	0efH
	DB	07eH
	DB	0f7H
	DB	07dH
	DB	0efH
	DB	07dH
	DB	0efH
	DB	07eH
	DB	0f7H
	DB	07dH
	DB	0efH
	DB	07dH
	DB	0efH
	DB	07eH
	DB	0f7H
	DB	07dH
	DB	0efH
	DB	07eH
	DB	0f7H
	DB	07eH
	DB	0f7H
	DB	07dH
	DB	0efH
	DB	07eH
	DB	0f7H
	DB	07eH
	DB	0f7H
	DB	07dH
	DB	0efH
	DB	07eH
	DB	0f7H
	DB	07dH
	DB	0efH
	DB	07dH
	DB	0efH
	DB	07eH
	DB	0f7H
	DB	07dH
	DB	0efH
	DB	07eH
	DB	0f7H
	DB	07dH
	DB	0efH
	DB	07eH
	DB	0f7H
	DB	07dH
	DB	0efH
	DB	07eH
	DB	0f7H
	DB	07eH
	DB	0f7H
	DB	07dH
	DB	0efH
	DB	07eH
	DB	0f7H
	DB	07eH
	DB	0f7H
	DB	07dH
	DB	0efH
	DB	07eH
	DB	0f7H
	DB	07dH
	DB	0efH
	DB	07dH
	DB	0efH
	DB	07eH
	DB	0f7H
	DB	07dH
	DB	0efH
	DB	07eH
	DB	0f7H
	DB	07eH
	DB	0f7H
	DB	07dH
	DB	0efH
	DB	07eH
	DB	0f7H
	DB	07eH
	DB	0f7H
	DB	07dH
	DB	0efH
	DB	07eH
	DB	0f7H
	DB	07eH
	DB	0f7H
	DB	07dH
	DB	0efH
	DB	07dH
	DB	0efH
	DB	07eH
	DB	0f7H
	DB	07dH
	DB	0efH
	DB	07dH
	DB	0efH
	DB	07eH
	DB	0f7H
	DB	07eH
	DB	0f7H
	DB	07dH
	DB	0efH
	DB	07eH
	DB	0f7H
	DB	07eH
	DB	0f7H
	DB	07dH
	DB	0efH
	DB	07eH
	DB	0f7H
	DB	07eH
	DB	0f7H
	DB	07dH
	DB	0efH
	DB	07eH
	DB	0f7H
	DB	07eH
	DB	0f7H
	DB	07dH
	DB	0efH
	DB	07eH
	DB	0f7H
	DB	07dH
	DB	0efH
	DB	07eH
	DB	0f7H
	DB	07dH
	DB	0efH
	DB	07eH
	DB	0f7H
	DB	07dH
	DB	0efH
	DB	07dH
	DB	0efH
	DB	07eH
	DB	0f7H
	DB	07dH
	DB	0efH
	DB	07eH
	DB	0f7H
	DB	07dH
	DB	0efH
	DB	07eH
	DB	0f7H
	DB	07eH
	DB	0f7H
	DB	07dH
	DB	0efH
	DB	07dH
	DB	0efH
	DB	07eH
	DB	0f7H
	DB	07dH
	DB	0efH
	DB	07dH
	DB	0efH
	DB	07eH
	DB	0f7H
	DB	07dH
	DB	0efH
	DB	07eH
	DB	0f7H
	DB	07dH
	DB	0efH
	DB	07eH
	DB	0f7H
	DB	07dH
	DB	0efH
	DB	07eH
	DB	0f7H
	DB	07dH
	DB	0efH
	DB	07eH
	DB	0f7H
	DB	07dH
	DB	0efH
	DB	07eH
	DB	0f7H
	DB	07dH
	DB	0efH
	DB	07dH
	DB	0efH
	DB	07eH
	DB	0f7H
	DB	07dH
	DB	0efH
	DB	07eH
	DB	0f7H
	DB	07eH
	DB	0f7H
	DB	07dH
	DB	0efH
	DB	07eH
	DB	0f7H
	DB	07eH
	DB	0f7H
	DB	07dH
	DB	0efH
	DB	07dH
	DB	0efH
	DB	07eH
	DB	0f7H
	DB	07eH
	DB	0f7H
	DB	07dH
	DB	0efH
	DB	07eH
	DB	0f7H
	DB	07eH
	DB	0f7H
	DB	07dH
	DB	0efH
	DB	07eH
	DB	0f7H
	DB	07eH
	DB	0f7H
	DB	07dH
	DB	0efH
	DB	07eH
	DB	0f7H
	DB	07eH
	DB	0f7H
	DB	07dH
	DB	0efH
	DB	07eH
	DB	0f7H
	DB	07dH
	DB	0efH
	DB	07eH
	DB	0f7H
	DB	07eH
	DB	0f7H
	DB	07eH
	DB	0f7H
	DB	07dH
	DB	0efH
	DB	07eH
	DB	0f7H
	DB	07dH
	DB	0efH
	DB	07dH
	DB	0efH
	DB	07eH
	DB	0f7H
	DB	07dH
	DB	0efH
	DB	07eH
	DB	0f7H
	DB	07dH
	DB	0efH
	DB	07eH
	DB	0f7H
	DB	07dH
	DB	0efH
	DB	07dH
	DB	0efH
	DB	07eH
	DB	0f7H
	DB	07dH
	DB	0efH
	DB	07eH
	DB	0f7H
	DB	07eH
	DB	0f7H
	DB	07dH
	DB	0efH
	DB	07dH
	DB	0efH
	DB	07eH
	DB	0f7H
	DB	07dH
	DB	0efH
	DB	07eH
	DB	0f7H
	DB	07eH
	DB	0f7H
	DB	07dH
	DB	0efH
	DB	07dH
	DB	0efH
	DB	07eH
	DB	0f7H
	DB	07dH
	DB	0efH
	DB	07eH
	DB	0f7H
	DB	07eH
	DB	0f7H
	DB	07dH
	DB	0efH
	DB	07dH
	DB	0efH
	DB	07eH
	DB	0f7H
	DB	07dH
	DB	0efH
	DB	07dH
	DB	0efH
	DB	07eH
	DB	0f7H
	DB	07dH
	DB	0efH
	DB	07dH
	DB	0efH
	DB	07eH
	DB	0f7H
	DB	07dH
	DB	0efH
	DB	07eH
	DB	0f7H
	DB	07dH
	DB	0efH
	DB	07dH
	DB	0efH
	DB	07eH
	DB	0f7H
	DB	07eH
	DB	0f7H
	DB	07dH
	DB	0efH
	DB	07eH
	DB	0f7H
	DB	07eH
	DB	0f7H
	DB	07dH
	DB	0efH
	DB	07dH
	DB	0efH
	DB	07eH
	DB	0f7H
	DB	07dH
	DB	0efH
	DB	07eH
	DB	0f7H
	DB	07eH
	DB	0f7H
	DB	07dH
	DB	0efH
	DB	07eH
	DB	0f7H
	DB	07eH
	DB	0f7H
	DB	07dH
	DB	0efH
	DB	07eH
	DB	0f7H
	DB	07eH
	DB	0f7H
	DB	07dH
	DB	0efH
	DB	07dH
	DB	0efH
	DB	07eH
	DB	0f7H
	DB	07dH
	DB	0efH
	DB	07dH
	DB	0efH
	DB	07eH
	DB	0f7H
	DB	07dH
	DB	0efH
	DB	07dH
	DB	0efH
	DB	07eH
	DB	0f7H
	DB	07dH
	DB	0efH
	DB	07dH
	DB	0efH
	DB	07eH
	DB	0f7H
	DB	07dH
	DB	0efH
	DB	07eH
	DB	0f7H
	DB	07eH
	DB	0f7H
	DB	07dH
	DB	0efH
	DB	07eH
	DB	0f7H
	DB	07eH
	DB	0f7H
	DB	07dH
	DB	0efH
	DB	07eH
	DB	0f7H
	DB	07dH
	DB	0efH
	DB	07eH
	DB	0f7H
	DB	07dH
	DB	0efH
	DB	07eH
	DB	0f7H
	DB	07eH
	DB	0f7H
	DB	07dH
	DB	0efH
	DB	07eH
	DB	0f7H
	DB	07dH
	DB	0efH
	DB	07dH
	DB	0efH
	DB	07eH
	DB	0f7H
	DB	07eH
	DB	0f7H
	DB	07dH
	DB	0efH
	DB	07eH
	DB	0f7H
	DB	07dH
	DB	0efH
	DB	07dH
	DB	0efH
	DB	07eH
	DB	0f7H
	DB	07dH
	DB	0efH
	DB	07dH
	DB	0efH
	DB	07eH
	DB	0f7H
	DB	07dH
	DB	0efH
	DB	07dH
	DB	0efH
	DB	07eH
	DB	0f7H
	DB	07dH
	DB	0efH
	DB	07dH
	DB	0efH
	DB	07eH
	DB	0f7H
	DB	07eH
	DB	0f7H
	DB	07dH
	DB	0efH
	DB	07eH
	DB	0f7H
	DB	07dH
	DB	0efH
	DB	07dH
	DB	0efH
	DB	07eH
	DB	0f7H
	DB	07dH
	DB	0efH
	DB	07eH
	DB	0f7H
	DB	07eH
	DB	0f7H
	DB	07dH
	DB	0efH
	DB	07eH
	DB	0f7H
	DB	07eH
	DB	0f7H
	DB	07dH
	DB	0efH
	DB	07eH
	DB	0f7H
	DB	07eH
	DB	0f7H
	DB	07dH
	DB	0efH
	DB	07eH
	DB	0f7H
	DB	07dH
	DB	0efH
	DB	07dH
	DB	0efH
	DB	07eH
	DB	0f7H
	DB	07dH
	DB	0efH
	DB	07eH
	DB	0f7H
	DB	07dH
	DB	0efH
	DB	07dH
	DB	0efH
	DB	07eH
	DB	0f7H
	DB	07dH
	DB	0efH
	DB	07eH
	DB	0f7H
	DB	07dH
	DB	0efH
	DB	07eH
	DB	0f7H
	DB	07eH
	DB	0f7H
	DB	07dH
	DB	0efH
	DB	07eH
	DB	0f7H
	DB	07dH
	DB	0efH
	DB	07dH
	DB	0efH
	DB	07eH
	DB	0f7H
	DB	07eH
	DB	0f7H
	DB	07dH
	DB	0efH
	DB	07eH
	DB	0f7H
	DB	07eH
	DB	0f7H
	DB	07dH
	DB	0efH
	DB	07eH
	DB	0f7H
	DB	07dH
	DB	0efH
	DB	07dH
	DB	0efH
	DB	07eH
	DB	0f7H
	DB	07dH
	DB	0efH
	DB	07dH
	DB	0efH
	DB	07eH
	DB	0f7H
	DB	07dH
	DB	0efH
	DB	07dH
	DB	0efH
	DB	07eH
	DB	0f7H
	DB	07eH
	DB	0f7H
	DB	07dH
	DB	0efH
	DB	07dH
	DB	0efH
	DB	07eH
	DB	0f7H
	DB	07dH
	DB	0efH
	DB	07dH
	DB	0efH
	DB	07eH
	DB	0f7H
	DB	07dH
	DB	0efH
	DB	07dH
	DB	0efH
	DB	07eH
	DB	0f7H
	DB	07dH
	DB	0efH
	DB	07eH
	DB	0f7H
	DB	07eH
	DB	0f7H
	DB	07dH
	DB	0efH
	DB	07eH
	DB	0f7H
	DB	07dH
	DB	0efH
	DB	07dH
	DB	0efH
	DB	07eH
	DB	0f7H
	DB	07dH
	DB	0efH
	DB	07dH
	DB	0efH
	DB	07eH
	DB	0f7H
	DB	07eH
	DB	0f7H
	DB	07dH
	DB	0efH
	DB	07dH
	DB	0efH
	DB	07dH
	DB	0efH
	DB	07eH
	DB	0f7H
	DB	07dH
	DB	0efH
	DB	07dH
	DB	0efH
	DB	07eH
	DB	0f7H
	DB	07eH
	DB	0f7H
	DB	07dH
	DB	0efH
	DB	07dH
	DB	0efH
	DB	07eH
	DB	0f7H
	DB	07dH
	DB	0efH
	DB	07dH
	DB	0efH
	DB	07eH
	DB	0f7H
	DB	07dH
	DB	0efH
	DB	07dH
	DB	0efH
	DB	07eH
	DB	0f7H
	DB	07eH
	DB	0f7H
	DB	07dH
	DB	0efH
	DB	07eH
	DB	0f7H
	DB	07eH
	DB	0f7H
	DB	07dH
	DB	0efH
	DB	07eH
	DB	0f7H
	DB	07eH
	DB	0f7H
	DB	07dH
	DB	0efH
	DB	07dH
	DB	0efH
	DB	07dH
	DB	0efH
	DB	07eH
	DB	0f7H
	DB	07dH
	DB	0efH
	DB	07eH
	DB	0f7H
	DB	07eH
	DB	0f7H
	DB	07dH
	DB	0efH
	DB	07eH
	DB	0f7H
	DB	07dH
	DB	0efH
	DB	07dH
	DB	0efH
	DB	07eH
	DB	0f7H
	DB	07dH
	DB	0efH
	DB	07eH
	DB	0f7H
	DB	07dH
	DB	0efH
	DB	07eH
	DB	0f7H
	DB	07eH
	DB	0f7H
	DB	07dH
	DB	0efH
	DB	07eH
	DB	0f7H
	DB	07eH
	DB	0f7H
	DB	07dH
	DB	0efH
	DB	07dH
	DB	0efH
	DB	07eH
	DB	0f7H
	DB	07dH
	DB	0efH
	DB	07dH
	DB	0efH
	DB	07eH
	DB	0f7H
	DB	07eH
	DB	0f7H
	DB	07dH
	DB	0efH
	DB	07eH
	DB	0f7H
	DB	07eH
	DB	0f7H
	DB	07dH
	DB	0efH
	DB	07dH
	DB	0efH
	DB	07eH
	DB	0f7H
	DB	07eH
	DB	0f7H
	DB	07dH
	DB	0efH
	DB	07eH
	DB	0f7H
	DB	07eH
	DB	0f7H
	DB	07dH
	DB	0efH
	DB	07eH
	DB	0f7H
	DB	07eH
	DB	0f7H
	DB	07dH
	DB	0efH
	DB	07eH
	DB	0f7H
	DB	07eH
	DB	0f7H
	DB	07dH
	DB	0efH
	DB	07eH
	DB	0f7H
	DB	07eH
	DB	0f7H
	DB	07dH
	DB	0efH
	DB	07dH
	DB	0efH
	DB	07eH
	DB	0f7H
	DB	07eH
	DB	0f7H
	DB	07dH
	DB	0efH
	DB	07eH
	DB	0f7H
	DB	07dH
	DB	0efH
	DB	07eH
	DB	0f7H
	DB	07dH
	DB	0efH
	DB	07dH
	DB	0efH
	DB	07eH
	DB	0f7H
	DB	07dH
	DB	0efH
	DB	07dH
	DB	0efH
	DB	07eH
	DB	0f7H
	DB	07eH
	DB	0f7H
	DB	07dH
	DB	0efH
	DB	07eH
	DB	0f7H
	DB	07eH
	DB	0f7H
	DB	07dH
	DB	0efH
	DB	07dH
	DB	0efH
	DB	07eH
	DB	0f7H
	DB	07eH
	DB	0f7H
	DB	07dH
	DB	0efH
	DB	07eH
	DB	0f7H
	DB	07dH
	DB	0efH
	DB	07eH
	DB	0f7H
	DB	07dH
	DB	0efH
	DB	07dH
	DB	0efH
	DB	07eH
	DB	0f7H
	DB	07dH
	DB	0efH
	DB	07dH
	DB	0efH
	DB	07eH
	DB	0f7H
	DB	07dH
	DB	0efH
	DB	07eH
	DB	0f7H
	DB	07eH
	DB	0f7H
	DB	07dH
	DB	0efH
	DB	07eH
	DB	0f7H
	DB	07eH
	DB	0f7H
	DB	07dH
	DB	0efH
	DB	07eH
	DB	0f7H
	DB	07dH
	DB	0efH
	DB	07eH
	DB	0f7H
	DB	07dH
	DB	0efH
	DB	07eH
	DB	0f7H
	DB	07dH
	DB	0efH
	DB	07dH
	DB	0efH
	DB	07eH
	DB	0f7H
	DB	07dH
	DB	0efH
	DB	07dH
	DB	0efH
	DB	07eH
	DB	0f7H
	DB	07eH
	DB	0f7H
	DB	07dH
	DB	0efH
	DB	07eH
	DB	0f7H
	DB	07dH
	DB	0efH
	DB	07dH
	DB	0efH
	DB	07eH
	DB	0f7H
	DB	07dH
	DB	0efH
	DB	07eH
	DB	0f7H
	DB	07dH
	DB	0efH
	DB	07dH
	DB	0efH
	DB	07eH
	DB	0f7H
	DB	07dH
	DB	0efH
	DB	07dH
	DB	0efH
	DB	07eH
	DB	0f7H
	DB	07dH
	DB	0efH
	DB	07eH
	DB	0f7H
	DB	07eH
	DB	0f7H
	DB	07dH
	DB	0efH
	DB	07dH
	DB	0efH
	DB	07eH
	DB	0f7H
	DB	07dH
	DB	0efH
	DB	07eH
	DB	0f7H
	DB	07eH
	DB	0f7H
	DB	07dH
	DB	0efH
	DB	07dH
	DB	0efH
	DB	07dH
	DB	0efH
	DB	07dH
	DB	0efH
	DB	07eH
	DB	0f7H
	DB	07dH
	DB	0efH
	DB	07eH
	DB	0f7H
	DB	07eH
	DB	0f7H
	DB	07dH
	DB	0efH
	DB	07dH
	DB	0efH
	DB	07eH
	DB	0f7H
	DB	07dH
	DB	0efH
	DB	07eH
	DB	0f7H
	DB	07dH
	DB	0efH
	DB	07eH
	DB	0f7H
	DB	07dH
	DB	0efH
	DB	07dH
	DB	0efH
	DB	07eH
	DB	0f7H
	DB	07eH
	DB	0f7H
	DB	07dH
	DB	0efH
	DB	07eH
	DB	0f7H
	DB	07dH
	DB	0efH
	DB	07eH
	DB	0f7H
	DB	07dH
	DB	0efH
	DB	07eH
	DB	0f7H
	DB	07dH
	DB	0efH
	DB	07dH
	DB	0efH
	DB	07eH
	DB	0f7H
	DB	07dH
	DB	0efH
	DB	07eH
	DB	0f7H
	DB	07dH
	DB	0efH
	DB	07eH
	DB	0f7H
	DB	07eH
	DB	0f7H
	DB	07dH
	DB	0efH
	DB	07eH
	DB	0f7H
	DB	07eH
	DB	0f7H
	DB	07dH
	DB	0efH
	DB	07dH
	DB	0efH
	DB	07eH
	DB	0f7H
	DB	07eH
	DB	0f7H
	DB	07dH
	DB	0efH
	DB	07eH
	DB	0f7H
	DB	07dH
	DB	0efH
	DB	07eH
	DB	0f7H
	DB	07dH
	DB	0efH
	DB	07eH
	DB	0f7H
	DB	07eH
	DB	0f7H
	DB	07dH
	DB	0efH
	DB	07eH
	DB	0f7H
	DB	07eH
	DB	0f7H
	DB	07dH
	DB	0efH
	DB	07eH
	DB	0f7H
	DB	07eH
	DB	0f7H
	DB	07dH
	DB	0efH
	DB	07dH
	DB	0efH
	DB	07eH
	DB	0f7H
	DB	07dH
	DB	0efH
	DB	07eH
	DB	0f7H
	DB	07dH
	DB	0efH
	DB	07dH
	DB	0efH
	DB	07eH
	DB	0f7H
	DB	07eH
	DB	0f7H
	DB	07dH
	DB	0efH
	DB	07eH
	DB	0f7H
	DB	07dH
	DB	0efH
	DB	07eH
	DB	0f7H
	DB	07dH
	DB	0efH
	DB	07dH
	DB	0efH
	DB	07eH
	DB	0f7H
	DB	07dH
	DB	0efH
	DB	07dH
	DB	0efH
	DB	07eH
	DB	0f7H
	DB	07dH
	DB	0efH
	DB	07dH
	DB	0efH
	DB	07eH
	DB	0f7H
	DB	07eH
	DB	0f7H
	DB	07dH
	DB	0efH
	DB	07eH
	DB	0f7H
	DB	07eH
	DB	0f7H
	DB	07dH
	DB	0efH
	DB	07dH
	DB	0efH
	DB	07eH
	DB	0f7H
	DB	07dH
	DB	0efH
	DB	07dH
	DB	0efH
	DB	07eH
	DB	0f7H
	DB	07dH
	DB	0efH
	DB	07dH
	DB	0efH
	DB	07eH
	DB	0f7H
	DB	07eH
	DB	0f7H
	DB	07dH
	DB	0efH
	DB	07eH
	DB	0f7H
	DB	07eH
	DB	0f7H
	DB	07dH
	DB	0efH
	DB	07eH
	DB	0f7H
	DB	07dH
	DB	0efH
	DB	07dH
	DB	0efH
	DB	07eH
	DB	0f7H
	DB	07dH
	DB	0efH
	DB	07dH
	DB	0efH
	DB	07eH
	DB	0f7H
	DB	07dH
	DB	0efH
	DB	07eH
	DB	0f7H
	DB	07dH
	DB	0efH
	DB	07dH
	DB	0efH
	DB	07eH
	DB	0f7H
	DB	07dH
	DB	0efH
	DB	07dH
	DB	0efH
	DB	07eH
	DB	0f7H
	DB	07dH
	DB	0efH
	DB	07eH
	DB	0f7H
	DB	07eH
	DB	0f7H
	DB	07dH
	DB	0efH
	DB	07eH
	DB	0f7H
	DB	07dH
	DB	0efH
	DB	07eH
	DB	0f7H
	DB	07dH
	DB	0efH
	DB	07dH
	DB	0efH
	DB	07eH
	DB	0f7H
	DB	07dH
	DB	0efH
	DB	07dH
	DB	0efH
	DB	07eH
	DB	0f7H
	DB	07eH
	DB	0f7H
	DB	07dH
	DB	0efH
	DB	07eH
	DB	0f7H
	DB	07dH
	DB	0efH
	DB	07eH
	DB	0f7H
	DB	07dH
	DB	0efH
	DB	07eH
	DB	0f7H
	DB	07dH
	DB	0efH
	DB	07eH
	DB	0f7H
	DB	07dH
	DB	0efH
	DB	07eH
	DB	0f7H
	DB	07dH
	DB	0efH
	DB	07eH
	DB	0f7H
	DB	07dH
	DB	0efH
	DB	07eH
	DB	0f7H
	DB	07eH
	DB	0f7H
	DB	07dH
	DB	0efH
	DB	07dH
	DB	0efH
	DB	07eH
	DB	0f7H
	DB	07dH
	DB	0efH
	DB	07dH
	DB	0efH
	DB	07eH
	DB	0f7H
	DB	07dH
	DB	0efH
	DB	07eH
	DB	0f7H
	DB	07dH
	DB	0efH
	DB	07dH
	DB	0efH
	DB	07eH
	DB	0f7H
	DB	07dH
	DB	0efH
	DB	07eH
	DB	0f7H
	DB	07dH
	DB	0efH
	DB	07dH
	DB	0efH
	DB	07eH
	DB	0f7H
	DB	07dH
	DB	0efH
	DB	07dH
	DB	0efH
	DB	07eH
	DB	0f7H
	DB	07dH
	DB	0efH
	DB	07eH
	DB	0f7H
	DB	07dH
	DB	0efH
	DB	07dH
	DB	0efH
	DB	07dH
	DB	0efH
	DB	07eH
	DB	0f7H
	DB	07dH
	DB	0efH
	DB	07eH
	DB	0f7H
	DB	07eH
	DB	0f7H
	DB	07dH
	DB	0efH
	DB	07eH
	DB	0f7H
	DB	07dH
	DB	0efH
	DB	07eH
	DB	0f7H
	DB	07dH
	DB	0efH
	DB	07eH
	DB	0f7H
	DB	07dH
	DB	0efH
	DB	07eH
	DB	0f7H
	DB	07dH
	DB	0efH
	DB	07dH
	DB	0efH
	DB	07eH
	DB	0f7H
	DB	07dH
	DB	0efH
	DB	07eH
	DB	0f7H
	DB	07eH
	DB	0f7H
	DB	07dH
	DB	0efH
	DB	07eH
	DB	0f7H
	DB	07dH
	DB	0efH
	DB	07dH
	DB	0efH
	DB	07eH
	DB	0f7H
	DB	07eH
	DB	0f7H
	DB	07dH
	DB	0efH
	DB	07eH
	DB	0f7H
	DB	07dH
	DB	0efH
	DB	07dH
	DB	0efH
	DB	07eH
	DB	0f7H
	DB	07eH
	DB	0f7H
	DB	07dH
	DB	0efH
	DB	07eH
	DB	0f7H
	DB	07dH
	DB	0efH
	DB	07eH
	DB	0f7H
	DB	07eH
	DB	0f7H
	DB	07dH
	DB	0efH
	DB	07eH
	DB	0f7H
	DB	07dH
	DB	0efH
	DB	07eH
	DB	0f7H
	DB	07eH
	DB	0f7H
	DB	07dH
	DB	0efH
	DB	07eH
	DB	0f7H
	DB	07dH
	DB	0efH
	DB	07dH
	DB	0efH
	DB	07eH
	DB	0f7H
	DB	07dH
	DB	0efH
	DB	07eH
	DB	0f7H
	DB	07dH
	DB	0efH
	DB	07eH
	DB	0f7H
	DB	07dH
	DB	0efH
	DB	07dH
	DB	0efH
	DB	07eH
	DB	0f7H
	DB	07dH
	DB	0efH
	DB	07dH
	DB	0efH
	DB	07eH
	DB	0f7H
	DB	07dH
	DB	0efH
	DB	07dH
	DB	0efH
	DB	07eH
	DB	0f7H
	DB	07eH
	DB	0f7H
	DB	07dH
	DB	0efH
	DB	07eH
	DB	0f7H
	DB	07eH
	DB	0f7H
	DB	07dH
	DB	0efH
	DB	07eH
	DB	0f7H
	DB	07eH
	DB	0f7H
	DB	07dH
	DB	0efH
	DB	07eH
	DB	0f7H
	DB	07eH
	DB	0f7H
	DB	07dH
	DB	0efH
	DB	07eH
	DB	0f7H
	DB	07dH
	DB	0efH
	DB	07dH
	DB	0efH
	DB	07eH
	DB	0f7H
	DB	07dH
	DB	0efH
	DB	07dH
	DB	0efH
	DB	07eH
	DB	0f7H
	DB	07dH
	DB	0efH
	DB	07eH
	DB	0f7H
	DB	07dH
	DB	0efH
	DB	07eH
	DB	0f7H
	DB	07eH
	DB	0f7H
	DB	07dH
	DB	0efH
	DB	07dH
	DB	0efH
	DB	07eH
	DB	0f7H
	DB	07dH
	DB	0efH
	DB	07eH
	DB	0f7H
	DB	07eH
	DB	0f7H
	DB	07dH
	DB	0efH
	DB	07dH
	DB	0efH
	DB	07eH
	DB	0f7H
	DB	07dH
	DB	0efH
	DB	07eH
	DB	0f7H
	DB	07eH
	DB	0f7H
	DB	07dH
	DB	0efH
	DB	07eH
	DB	0f7H
	DB	07dH
	DB	0efH
	DB	07eH
	DB	0f7H
	DB	07eH
	DB	0f7H
	DB	07dH
	DB	0efH
	DB	07eH
	DB	0f7H
	DB	07eH
	DB	0f7H
	DB	07dH
	DB	0efH
	DB	07dH
	DB	0efH
	DB	07eH
	DB	0f7H
	DB	07dH
	DB	0efH
	DB	07eH
	DB	0f7H
	DB	07eH
	DB	0f7H
	DB	07dH
	DB	0efH
	DB	07eH
	DB	0f7H
	DB	07dH
	DB	0efH
	DB	07eH
	DB	0f7H
	DB	07dH
	DB	0efH
	DB	07dH
	DB	0efH
	DB	07eH
	DB	0f7H
	DB	07dH
	DB	0efH
	DB	07dH
	DB	0efH
	DB	07eH
	DB	0f7H
	DB	07dH
	DB	0efH
	DB	07dH
	DB	0efH
	DB	07eH
	DB	0f7H
	DB	07eH
	DB	0f7H
	DB	07dH
	DB	0efH
	DB	07eH
	DB	0f7H
	DB	07dH
	DB	0efH
	DB	07dH
	DB	0efH
	DB	07eH
	DB	0f7H
	DB	07eH
	DB	0f7H
	DB	07dH
	DB	0efH
	DB	07eH
	DB	0f7H
	DB	07dH
	DB	0efH
	DB	07dH
	DB	0efH
	DB	07eH
	DB	0f7H
	DB	07dH
	DB	0efH
	DB	07dH
	DB	0efH
	DB	07eH
	DB	0f7H
	DB	07eH
	DB	0f7H
	DB	07dH
	DB	0efH
	DB	07dH
	DB	0efH
	DB	07eH
	DB	0f7H
	DB	07dH
	DB	0efH
	DB	07dH
	DB	0efH
	DB	07eH
	DB	0f7H
	DB	07dH
	DB	0efH
	DB	07eH
	DB	0f7H
	DB	07eH
	DB	0f7H
	DB	07dH
	DB	0efH
	DB	07eH
	DB	0f7H
	DB	07eH
	DB	0f7H
	DB	07dH
	DB	0efH
	DB	07eH
	DB	0f7H
	DB	07eH
	DB	0f7H
	DB	07dH
	DB	0efH
	DB	07dH
	DB	0efH
	DB	07eH
	DB	0f7H
	DB	07dH
	DB	0efH
	DB	07eH
	DB	0f7H
	DB	07eH
	DB	0f7H
	DB	07dH
	DB	0efH
	DB	07eH
	DB	0f7H
	DB	07eH
	DB	0f7H
	DB	07dH
	DB	0efH
	DB	07eH
	DB	0f7H
	DB	07eH
	DB	0f7H
	DB	07dH
	DB	0efH
	DB	07dH
	DB	0efH
	DB	07eH
	DB	0f7H
	DB	07dH
	DB	0efH
	DB	07eH
	DB	0f7H
	DB	07eH
	DB	0f7H
	DB	07dH
	DB	0efH
	DB	07eH
	DB	0f7H
	DB	07eH
	DB	0f7H
	DB	07dH
	DB	0efH
	DB	07dH
	DB	0efH
	DB	07eH
	DB	0f7H
	DB	07dH
	DB	0efH
	DB	07eH
	DB	0f7H
	DB	07eH
	DB	0f7H
	DB	07dH
	DB	0efH
	DB	07eH
	DB	0f7H
	DB	07eH
	DB	0f7H
	DB	07dH
	DB	0efH
	DB	07dH
	DB	0efH
	DB	07eH
	DB	0f7H
	DB	07eH
	DB	0f7H
	DB	07dH
	DB	0efH
	DB	07eH
	DB	0f7H
	DB	07eH
	DB	0f7H
	DB	07dH
	DB	0efH
	DB	07eH
	DB	0f7H
	DB	07dH
	DB	0efH
	DB	07dH
	DB	0efH
	DB	07eH
	DB	0f7H
	DB	07dH
	DB	0efH
	DB	07dH
	DB	0efH
	DB	07eH
	DB	0f7H
	DB	07dH
	DB	0efH
	DB	07dH
	DB	0efH
	DB	07eH
	DB	0f7H
	DB	07eH
	DB	0f7H
	DB	07dH
	DB	0efH
	DB	07eH
	DB	0f7H
	DB	07eH
	DB	0f7H
	DB	07dH
	DB	0efH
	DB	07dH
	DB	0efH
	DB	07eH
	DB	0f7H
	DB	07dH
	DB	0efH
	DB	07eH
	DB	0f7H
	DB	07eH
	DB	0f7H
	DB	07dH
	DB	0efH
	DB	07eH
	DB	0f7H
	DB	07dH
	DB	0efH
	DB	07eH
	DB	0f7H
	DB	07dH
	DB	0efH
	DB	07dH
	DB	0efH
	DB	07eH
	DB	0f7H
	DB	07dH
	DB	0efH
	DB	07dH
	DB	0efH
	DB	07eH
	DB	0f7H
	DB	07dH
	DB	0efH
	DB	07eH
	DB	0f7H
	DB	07dH
	DB	0efH
	DB	07eH
	DB	0f7H
	DB	07eH
	DB	0f7H
	DB	07dH
	DB	0efH
	DB	07dH
	DB	0efH
	DB	07eH
	DB	0f7H
	DB	07dH
	DB	0efH
	DB	07dH
	DB	0efH
	DB	07eH
	DB	0f7H
	DB	07eH
	DB	0f7H
	DB	07dH
	DB	0efH
	DB	07dH
	DB	0efH
	DB	07eH
	DB	0f7H
	DB	07dH
	DB	0efH
	DB	07eH
	DB	0f7H
	DB	07dH
	DB	0efH
	DB	07dH
	DB	0efH
	DB	07eH
	DB	0f7H
	DB	07dH
	DB	0efH
	DB	07dH
	DB	0efH
	DB	07eH
	DB	0f7H
	DB	07dH
	DB	0efH
	DB	07dH
	DB	0efH
	DB	07eH
	DB	0f7H
	DB	07eH
	DB	0f7H
	DB	07dH
	DB	0efH
	DB	07eH
	DB	0f7H
	DB	07dH
	DB	0efH
	DB	07eH
	DB	0f7H
	DB	07eH
	DB	0f7H
	DB	07dH
	DB	0efH
	DB	07eH
	DB	0f7H
	DB	07eH
	DB	0f7H
	DB	07dH
	DB	0efH
	DB	07eH
	DB	0f7H
	DB	07eH
	DB	0f7H
	DB	07dH
	DB	0efH
	DB	07dH
	DB	0efH
	DB	07eH
	DB	0f7H
	DB	07dH
	DB	0efH
	DB	07dH
	DB	0efH
	DB	07eH
	DB	0f7H
	DB	07dH
	DB	0efH
	DB	07eH
	DB	0f7H
	DB	07dH
	DB	0efH
	DB	07eH
	DB	0f7H
	DB	07dH
	DB	0efH
	DB	07dH
	DB	0efH
	DB	07eH
	DB	0f7H
	DB	07eH
	DB	0f7H
	DB	07dH
	DB	0efH
	DB	07eH
	DB	0f7H
	DB	07eH
	DB	0f7H
	DB	07dH
	DB	0efH
	DB	07eH
	DB	0f7H
	DB	07eH
	DB	0f7H
	DB	07dH
	DB	0efH
	DB	07dH
	DB	0efH
	DB	07eH
	DB	0f7H
	DB	07dH
	DB	0efH
	DB	07dH
	DB	0efH
	DB	07eH
	DB	0f7H
	DB	07dH
	DB	0efH
	DB	07eH
	DB	0f7H
	DB	07eH
	DB	0f7H
	DB	07dH
	DB	0efH
	DB	07eH
	DB	0f7H
	DB	07dH
	DB	0efH
	DB	07eH
	DB	0f7H
	DB	07eH
	DB	0f7H
	DB	07dH
	DB	0efH
	DB	07eH
	DB	0f7H
	DB	07eH
	DB	0f7H
	DB	07dH
	DB	0efH
	DB	07dH
	DB	0efH
	DB	07eH
	DB	0f7H
	DB	07eH
	DB	0f7H
	DB	07dH
	DB	0efH
	DB	07eH
	DB	0f7H
	DB	07dH
	DB	0efH
	DB	07eH
	DB	0f7H
	DB	07dH
	DB	0efH
	DB	07eH
	DB	0f7H
	DB	07eH
	DB	0f7H
	DB	07dH
	DB	0efH
	DB	07eH
	DB	0f7H
	DB	07eH
	DB	0f7H
	DB	07dH
	DB	0efH
	DB	07eH
	DB	0f7H
	DB	07dH
	DB	0efH
	DB	07dH
	DB	0efH
	DB	07eH
	DB	0f7H
	DB	07dH
	DB	0efH
	DB	07eH
	DB	0f7H
	DB	07eH
	DB	0f7H
	DB	07dH
	DB	0efH
	DB	07dH
	DB	0efH
	DB	07eH
	DB	0f7H
	DB	07eH
	DB	0f7H
	DB	07dH
	DB	0efH
	DB	07eH
	DB	0f7H
	DB	07dH
	DB	0efH
	DB	07dH
	DB	0efH
	DB	07eH
	DB	0f7H
	DB	07dH
	DB	0efH
	DB	07eH
	DB	0f7H
	DB	07eH
	DB	0f7H
	DB	07dH
	DB	0efH
	DB	07eH
	DB	0f7H
	DB	07dH
	DB	0efH
	DB	07dH
	DB	0efH
	DB	07eH
	DB	0f7H
	DB	07dH
	DB	0efH
	DB	07eH
	DB	0f7H
	DB	07dH
	DB	0efH
	DB	07dH
	DB	0efH
	DB	07eH
	DB	0f7H
	DB	07dH
	DB	0efH
	DB	07eH
	DB	0f7H
	DB	07eH
	DB	0f7H
	DB	07dH
	DB	0efH
	DB	07dH
	DB	0efH
	DB	07eH
	DB	0f7H
	DB	07eH
	DB	0f7H
	DB	07dH
	DB	0efH
	DB	07eH
	DB	0f7H
	DB	07eH
	DB	0f7H
	DB	07dH
	DB	0efH
	DB	07dH
	DB	0efH
	DB	07eH
	DB	0f7H
	DB	07dH
	DB	0efH
	DB	07dH
	DB	0efH
	DB	07eH
	DB	0f7H
	DB	07eH
	DB	0f7H
	DB	07dH
	DB	0efH
	DB	07eH
	DB	0f7H
	DB	07dH
	DB	0efH
	DB	07dH
	DB	0efH
	DB	07eH
	DB	0f7H
	DB	07dH
	DB	0efH
	DB	07eH
	DB	0f7H
	DB	07dH
	DB	0efH
	DB	07dH
	DB	0efH
	DB	07eH
	DB	0f7H
	DB	07dH
	DB	0efH
	DB	07dH
	DB	0efH
	DB	07eH
	DB	0f7H
	DB	07dH
	DB	0efH
	DB	07dH
	DB	0efH
	DB	07eH
	DB	0f7H
	DB	07eH
	DB	0f7H
	DB	07dH
	DB	0efH
	DB	07eH
	DB	0f7H
	DB	07dH
	DB	0efH
	DB	07eH
	DB	0f7H
	DB	07dH
	DB	0efH
	DB	07eH
	DB	0f7H
	DB	07dH
	DB	0efH
	DB	07eH
	DB	0f7H
	DB	07dH
	DB	0efH
	DB	07eH
	DB	0f7H
	DB	07dH
	DB	0efH
	DB	07eH
	DB	0f7H
	DB	07eH
	DB	0f7H
	DB	07dH
	DB	0efH
	DB	07eH
	DB	0f7H
	DB	07eH
	DB	0f7H
	DB	07dH
	DB	0efH
	DB	07eH
	DB	0f7H
	DB	07eH
	DB	0f7H
	DB	07dH
	DB	0efH
	DB	07dH
	DB	0efH
	DB	07eH
	DB	0f7H
	DB	07dH
	DB	0efH
	DB	07dH
	DB	0efH
	DB	07eH
	DB	0f7H
	DB	07eH
	DB	0f7H
	DB	07dH
	DB	0efH
	DB	07eH
	DB	0f7H
	DB	07eH
	DB	0f7H
	DB	07dH
	DB	0efH
	DB	07eH
	DB	0f7H
	DB	07eH
	DB	0f7H
	DB	07dH
	DB	0efH
	DB	07dH
	DB	0efH
	DB	07eH
	DB	0f7H
	DB	07dH
	DB	0efH
	DB	07dH
	DB	0efH
	DB	07eH
	DB	0f7H
	DB	07dH
	DB	0efH
	DB	07eH
	DB	0f7H
	DB	07eH
	DB	0f7H
	DB	07dH
	DB	0efH
	DB	07eH
	DB	0f7H
	DB	07eH
	DB	0f7H
	DB	07dH
	DB	0efH
	DB	07eH
	DB	0f7H
	DB	07dH
	DB	0efH
	DB	07eH
	DB	0f7H
	DB	07dH
	DB	0efH
	DB	07eH
	DB	0f7H
	DB	07dH
	DB	0efH
	DB	07eH
	DB	0f7H
	DB	07eH
	DB	0f7H
	DB	07dH
	DB	0efH
	DB	07eH
	DB	0f7H
	DB	07dH
	DB	0efH
	DB	07dH
	DB	0efH
	DB	07eH
	DB	0f7H
	DB	07dH
	DB	0efH
	DB	07eH
	DB	0f7H
	DB	07eH
	DB	0f7H
	DB	07dH
	DB	0efH
	DB	07eH
	DB	0f7H
	DB	07eH
	DB	0f7H
	DB	07dH
	DB	0efH
	DB	05dH
	DB	0efH
	DB	05dH
	DB	0efH
	DB	07dH
	DB	0efH
	DB	07eH
	DB	0f7H
	DB	07dH
	DB	0efH
	DB	07dH
	DB	0efH
	DB	07eH
	DB	0f7H
	DB	07dH
	DB	0efH
	DB	07eH
	DB	0f7H
	DB	07dH
	DB	0efH
	DB	07dH
	DB	0efH
	DB	07dH
	DB	0efH
	DB	07dH
	DB	0efH
	DB	07eH
	DB	0f7H
	DB	07eH
	DB	0f7H
	DB	07dH
	DB	0efH
	DB	07dH
	DB	0efH
	DB	07eH
	DB	0f7H
	DB	07dH
	DB	0efH
	DB	07dH
	DB	0efH
	DB	07eH
	DB	0f7H
	DB	07dH
	DB	0efH
	DB	07dH
	DB	0efH
	DB	07dH
	DB	0efH
	DB	07eH
	DB	0f7H
	DB	07dH
	DB	0efH
	DB	07dH
	DB	0efH
	DB	07eH
	DB	0f7H
	DB	07dH
	DB	0efH
	DB	07eH
	DB	0f7H
	DB	07dH
	DB	0efH
	DB	07dH
	DB	0efH
	DB	07dH
	DB	0efH
	DB	07dH
	DB	0efH
	DB	07eH
	DB	0f7H
	DB	07eH
	DB	0f7H
	DB	07dH
	DB	0efH
	DB	07dH
	DB	0efH
	DB	07eH
	DB	0f7H
	DB	07dH
	DB	0efH
	DB	07dH
	DB	0efH
	DB	07eH
	DB	0f7H
	DB	07eH
	DB	0f7H
	DB	07dH
	DB	0efH
	DB	07dH
	DB	0efH
	DB	07eH
	DB	0f7H
	DB	07dH
	DB	0efH
	DB	07eH
	DB	0f7H
	DB	07dH
	DB	0efH
	DB	07eH
	DB	0f7H
	DB	07dH
	DB	0efH
	DB	07dH
	DB	0efH
	DB	07eH
	DB	0f7H
	DB	07eH
	DB	0f7H
	DB	07dH
	DB	0efH
	DB	07eH
	DB	0f7H
	DB	07eH
	DB	0f7H
	DB	07dH
	DB	0efH
	DB	07dH
	DB	0efH
	DB	07dH
	DB	0efH
	DB	07eH
	DB	0f7H
	DB	07dH
	DB	0efH
	DB	07eH
	DB	0f7H
	DB	07eH
	DB	0f7H
	DB	07dH
	DB	0efH
	DB	07dH
	DB	0efH
	DB	07eH
	DB	0f7H
	DB	07eH
	DB	0f7H
	DB	07dH
	DB	0efH
	DB	07eH
	DB	0f7H
	DB	07dH
	DB	0efH
	DB	07eH
	DB	0f7H
	DB	07dH
	DB	0efH
	DB	07eH
	DB	0f7H
	DB	07dH
	DB	0efH
	DB	07dH
	DB	0efH
	DB	07eH
	DB	0f7H
	DB	07dH
	DB	0efH
	DB	07eH
	DB	0f7H
	DB	07eH
	DB	0f7H
	DB	07dH
	DB	0efH
	DB	07dH
	DB	0efH
	DB	07eH
	DB	0f7H
	DB	07dH
	DB	0efH
	DB	07eH
	DB	0f7H
	DB	07dH
	DB	0efH
	DB	07dH
	DB	0efH
	DB	07eH
	DB	0f7H
	DB	07dH
	DB	0efH
	DB	07dH
	DB	0efH
	DB	07eH
	DB	0f7H
	DB	07eH
	DB	0f7H
	DB	07dH
	DB	0efH
	DB	07eH
	DB	0f7H
	DB	07eH
	DB	0f7H
	DB	07dH
	DB	0efH
	DB	07dH
	DB	0efH
	DB	07eH
	DB	0f7H
	DB	07eH
	DB	0f7H
	DB	07dH
	DB	0efH
	DB	07dH
	DB	0efH
	DB	07dH
	DB	0efH
	DB	07dH
	DB	0efH
	DB	07dH
	DB	0efH
	DB	07eH
	DB	0f7H
	DB	07dH
	DB	0efH
	DB	07eH
	DB	0f7H
	DB	07dH
	DB	0efH
	DB	07dH
	DB	0efH
	DB	07dH
	DB	0efH
	DB	07eH
	DB	0f7H
	DB	07dH
	DB	0efH
	DB	07dH
	DB	0efH
	DB	07eH
	DB	0f7H
	DB	07dH
	DB	0efH
	DB	07dH
	DB	0efH
	DB	07eH
	DB	0f7H
	DB	07eH
	DB	0f7H
	DB	07dH
	DB	0efH
	DB	07dH
	DB	0efH
	DB	07dH
	DB	0efH
	DB	07eH
	DB	0f7H
	DB	07dH
	DB	0efH
	DB	07dH
	DB	0efH
	DB	07eH
	DB	0f7H
	DB	07dH
	DB	0efH
	DB	07dH
	DB	0efH
	DB	07dH
	DB	0efH
	DB	07eH
	DB	0f7H
	DB	07dH
	DB	0efH
	DB	07eH
	DB	0f7H
	DB	07eH
	DB	0f7H
	DB	07dH
	DB	0efH
	DB	07dH
	DB	0efH
	DB	07eH
	DB	0f7H
	DB	07dH
	DB	0efH
	DB	07dH
	DB	0efH
	DB	07eH
	DB	0f7H
	DB	07dH
	DB	0efH
	DB	07dH
	DB	0efH
	DB	07eH
	DB	0f7H
	DB	07dH
	DB	0efH
	DB	07dH
	DB	0efH
	DB	07eH
	DB	0f7H
	DB	07dH
	DB	0efH
	DB	07eH
	DB	0f7H
	DB	07dH
	DB	0efH
	DB	07dH
	DB	0efH
	DB	07eH
	DB	0f7H
	DB	07dH
	DB	0efH
	DB	07dH
	DB	0efH
	DB	07eH
	DB	0f7H
	DB	07eH
	DB	0f7H
	DB	07dH
	DB	0efH
	DB	07eH
	DB	0f7H
	DB	07dH
	DB	0efH
	DB	07eH
	DB	0f7H
	DB	07eH
	DB	0f7H
	DB	07dH
	DB	0efH
	DB	07dH
	DB	0efH
	DB	07eH
	DB	0f7H
	DB	07dH
	DB	0efH
	DB	07eH
	DB	0f7H
	DB	07dH
	DB	0efH
	DB	07eH
	DB	0f7H
	DB	07eH
	DB	0f7H
	DB	07dH
	DB	0efH
	DB	07dH
	DB	0efH
	DB	07eH
	DB	0f7H
	DB	07dH
	DB	0efH
	DB	07eH
	DB	0f7H
	DB	07eH
	DB	0f7H
	DB	07dH
	DB	0efH
	DB	07eH
	DB	0f7H
	DB	07eH
	DB	0f7H
	DB	07dH
	DB	0efH
	DB	07dH
	DB	0efH
	DB	07eH
	DB	0f7H
	DB	07dH
	DB	0efH
	DB	07eH
	DB	0f7H
	DB	07eH
	DB	0f7H
	DB	07dH
	DB	0efH
	DB	07dH
	DB	0efH
	DB	07eH
	DB	0f7H
	DB	07dH
	DB	0efH
	DB	07dH
	DB	0efH
	DB	07eH
	DB	0f7H
	DB	07dH
	DB	0efH
	DB	07dH
	DB	0efH
	DB	07dH
	DB	0efH
	DB	07eH
	DB	0f7H
	DB	07dH
	DB	0efH
	DB	07dH
	DB	0efH
	DB	07dH
	DB	0efH
	DB	07eH
	DB	0f7H
	DB	07eH
	DB	0f7H
	DB	07dH
	DB	0efH
	DB	07dH
	DB	0efH
	DB	07eH
	DB	0f7H
	DB	07dH
	DB	0efH
	DB	07dH
	DB	0efH
	DB	07eH
	DB	0f7H
	DB	07dH
	DB	0efH
	DB	07dH
	DB	0efH
	DB	07dH
	DB	0efH
	DB	07eH
	DB	0f7H
	DB	07dH
	DB	0efH
	DB	07dH
	DB	0efH
	DB	07dH
	DB	0efH
	DB	07dH
	DB	0efH
	DB	07dH
	DB	0efH
	DB	07eH
	DB	0f7H
	DB	07dH
	DB	0efH
	DB	07dH
	DB	0efH
	DB	07eH
	DB	0f7H
	DB	07eH
	DB	0f7H
	DB	07dH
	DB	0efH
	DB	07eH
	DB	0f7H
	DB	07dH
	DB	0efH
	DB	07dH
	DB	0efH
	DB	07dH
	DB	0efH
	DB	07dH
	DB	0efH
	DB	07dH
	DB	0efH
	DB	07eH
	DB	0f7H
	DB	07dH
	DB	0efH
	DB	07dH
	DB	0efH
	DB	07eH
	DB	0f7H
	DB	07dH
	DB	0efH
	DB	07eH
	DB	0f7H
	DB	07dH
	DB	0efH
	DB	07dH
	DB	0efH
	DB	07eH
	DB	0f7H
	DB	07eH
	DB	0f7H
	DB	07dH
	DB	0efH
	DB	07dH
	DB	0efH
	DB	07eH
	DB	0f7H
	DB	07dH
	DB	0efH
	DB	07dH
	DB	0efH
	DB	07eH
	DB	0f7H
	DB	07dH
	DB	0efH
	DB	07dH
	DB	0efH
	DB	07eH
	DB	0f7H
	DB	07dH
	DB	0efH
	DB	07dH
	DB	0efH
	DB	07eH
	DB	0f7H
	DB	07dH
	DB	0efH
	DB	07dH
	DB	0efH
	DB	07eH
	DB	0f7H
	DB	07dH
	DB	0efH
	DB	07dH
	DB	0efH
	DB	07dH
	DB	0efH
	DB	07dH
	DB	0efH
	DB	07eH
	DB	0f7H
	DB	07dH
	DB	0efH
	DB	07dH
	DB	0efH
	DB	07eH
	DB	0f7H
	DB	07eH
	DB	0f7H
	DB	07dH
	DB	0efH
	DB	07dH
	DB	0efH
	DB	07eH
	DB	0f7H
	DB	07dH
	DB	0efH
	DB	07dH
	DB	0efH
	DB	07eH
	DB	0f7H
	DB	07dH
	DB	0efH
	DB	07dH
	DB	0efH
	DB	07eH
	DB	0f7H
	DB	07eH
	DB	0f7H
	DB	07dH
	DB	0efH
	DB	07eH
	DB	0f7H
	DB	07dH
	DB	0efH
	DB	07eH
	DB	0f7H
	DB	07dH
	DB	0efH
	DB	07dH
	DB	0efH
	DB	07eH
	DB	0f7H
	DB	07eH
	DB	0f7H
	DB	07dH
	DB	0efH
	DB	07dH
	DB	0efH
	DB	07dH
	DB	0efH
	DB	07dH
	DB	0efH
	DB	07eH
	DB	0f7H
	DB	07eH
	DB	0f7H
	DB	07dH
	DB	0efH
	DB	07eH
	DB	0f7H
	DB	07dH
	DB	0efH
	DB	07dH
	DB	0efH
	DB	07eH
	DB	0f7H
	DB	07dH
	DB	0efH
	DB	07dH
	DB	0efH
	DB	07eH
	DB	0f7H
	DB	07dH
	DB	0efH
	DB	07eH
	DB	0f7H
	DB	07dH
	DB	0efH
	DB	07dH
	DB	0efH
	DB	07dH
	DB	0efH
	DB	07dH
	DB	0efH
	DB	07eH
	DB	0f7H
	DB	07dH
	DB	0efH
	DB	07dH
	DB	0efH
	DB	07eH
	DB	0f7H
	DB	07dH
	DB	0efH
	DB	07eH
	DB	0f7H
	DB	07eH
	DB	0f7H
	DB	07dH
	DB	0efH
	DB	07eH
	DB	0f7H
	DB	07dH
	DB	0efH
	DB	07dH
	DB	0efH
	DB	07eH
	DB	0f7H
	DB	07dH
	DB	0efH
	DB	07dH
	DB	0efH
	DB	07eH
	DB	0f7H
	DB	07eH
	DB	0f7H
	DB	07dH
	DB	0efH
	DB	07dH
	DB	0efH
	DB	07eH
	DB	0f7H
	DB	07dH
	DB	0efH
	DB	07dH
	DB	0efH
	DB	07eH
	DB	0f7H
	DB	07dH
	DB	0efH
	DB	07dH
	DB	0efH
	DB	07eH
	DB	0f7H
	DB	07dH
	DB	0efH
	DB	07dH
	DB	0efH
	DB	07eH
	DB	0f7H
	DB	07dH
	DB	0efH
	DB	07eH
	DB	0f7H
	DB	07dH
	DB	0efH
	DB	07dH
	DB	0efH
	DB	07dH
	DB	0efH
	DB	07eH
	DB	0f7H
	DB	07dH
	DB	0efH
	DB	07dH
	DB	0efH
	DB	07eH
	DB	0f7H
	DB	07dH
	DB	0efH
	DB	07dH
	DB	0efH
	DB	07eH
	DB	0f7H
	DB	07dH
	DB	0efH
	DB	07eH
	DB	0f7H
	DB	07dH
	DB	0efH
	DB	07dH
	DB	0efH
	DB	07dH
	DB	0efH
	DB	07eH
	DB	0f7H
	DB	07dH
	DB	0efH
	DB	07eH
	DB	0f7H
	DB	07eH
	DB	0f7H
	DB	07dH
	DB	0efH
	DB	07dH
	DB	0efH
	DB	07dH
	DB	0efH
	DB	07eH
	DB	0f7H
	DB	07dH
	DB	0efH
	DB	07dH
	DB	0efH
	DB	07eH
	DB	0f7H
	DB	07dH
	DB	0efH
	DB	07eH
	DB	0f7H
	DB	07eH
	DB	0f7H
	DB	07dH
	DB	0efH
	DB	07eH
	DB	0f7H
	DB	07dH
	DB	0efH
	DB	07dH
	DB	0efH
	DB	07eH
	DB	0f7H
	DB	07dH
	DB	0efH
	DB	07dH
	DB	0efH
	DB	07eH
	DB	0f7H
	DB	07dH
	DB	0efH
	DB	07eH
	DB	0f7H
	DB	07dH
	DB	0efH
	DB	07eH
	DB	0f7H
	DB	07dH
	DB	0efH
	DB	07eH
	DB	0f7H
	DB	07dH
	DB	0efH
	DB	07dH
	DB	0efH
	DB	07eH
	DB	0f7H
	DB	07eH
	DB	0f7H
	DB	07dH
	DB	0efH
	DB	07eH
	DB	0f7H
	DB	07eH
	DB	0f7H
	DB	07dH
	DB	0efH
	DB	07dH
	DB	0efH
	DB	07eH
	DB	0f7H
	DB	07eH
	DB	0f7H
	DB	07dH
	DB	0efH
	DB	07dH
	DB	0efH
	DB	07eH
	DB	0f7H
	DB	07dH
	DB	0efH
	DB	07dH
	DB	0efH
	DB	07eH
	DB	0f7H
	DB	07dH
	DB	0efH
	DB	07eH
	DB	0f7H
	DB	07dH
	DB	0efH
	DB	07dH
	DB	0efH
	DB	07eH
	DB	0f7H
	DB	07dH
	DB	0efH
	DB	07dH
	DB	0efH
	DB	07eH
	DB	0f7H
	DB	07eH
	DB	0f7H
	DB	07dH
	DB	0efH
	DB	07dH
	DB	0efH
	DB	07eH
	DB	0f7H
	DB	07dH
	DB	0efH
	DB	07dH
	DB	0efH
	DB	07eH
	DB	0f7H
	DB	07dH
	DB	0efH
	DB	07dH
	DB	0efH
	DB	07dH
	DB	0efH
	DB	07eH
	DB	0f7H
	DB	07eH
	DB	0f7H
	DB	07dH
	DB	0efH
	DB	07eH
	DB	0f7H
	DB	07eH
	DB	0f7H
	DB	07dH
	DB	0efH
	DB	07eH
	DB	0f7H
	DB	07dH
	DB	0efH
	DB	07dH
	DB	0efH
	DB	07eH
	DB	0f7H
	DB	07dH
	DB	0efH
	DB	07dH
	DB	0efH
	DB	07eH
	DB	0f7H
	DB	07dH
	DB	0efH
	DB	07dH
	DB	0efH
	DB	07eH
	DB	0f7H
	DB	07eH
	DB	0f7H
	DB	07dH
	DB	0efH
	DB	07eH
	DB	0f7H
	DB	07dH
	DB	0efH
	DB	07dH
	DB	0efH
	DB	07dH
	DB	0efH
	DB	07eH
	DB	0f7H
	DB	07dH
	DB	0efH
	DB	07dH
	DB	0efH
	DB	07eH
	DB	0f7H
	DB	07dH
	DB	0efH
	DB	07dH
	DB	0efH
	DB	07eH
	DB	0f7H
	DB	07dH
	DB	0efH
	DB	07dH
	DB	0efH
	DB	07eH
	DB	0f7H
	DB	07eH
	DB	0f7H
	DB	07dH
	DB	0efH
	DB	07eH
	DB	0f7H
	DB	07dH
	DB	0efH
	DB	07dH
	DB	0efH
	DB	07eH
	DB	0f7H
	DB	07dH
	DB	0efH
	DB	07dH
	DB	0efH
	DB	07dH
	DB	0efH
	DB	07dH
	DB	0efH
	DB	07dH
	DB	0efH
	DB	07dH
	DB	0efH
	DB	07eH
	DB	0f7H
	DB	07eH
	DB	0f7H
	DB	07dH
	DB	0efH
	DB	07eH
	DB	0f7H
	DB	07eH
	DB	0f7H
	DB	07dH
	DB	0efH
	DB	07dH
	DB	0efH
	DB	07dH
	DB	0efH
	DB	07dH
	DB	0efH
	DB	07dH
	DB	0efH
	DB	07eH
	DB	0f7H
	DB	07dH
	DB	0efH
	DB	07eH
	DB	0f7H
	DB	07dH
	DB	0efH
	DB	07eH
	DB	0f7H
	DB	07dH
	DB	0efH
	DB	07eH
	DB	0f7H
	DB	07eH
	DB	0f7H
	DB	07dH
	DB	0efH
	DB	07dH
	DB	0efH
	DB	07eH
	DB	0f7H
	DB	07dH
	DB	0efH
	DB	07eH
	DB	0f7H
	DB	07eH
	DB	0f7H
	DB	07dH
	DB	0efH
	DB	07dH
	DB	0efH
	DB	07dH
	DB	0efH
	DB	07eH
	DB	0f7H
	DB	07dH
	DB	0efH
	DB	07dH
	DB	0efH
	DB	07dH
	DB	0efH
	DB	07dH
	DB	0efH
	DB	07eH
	DB	0f7H
	DB	05dH
	DB	0efH
	DB	07dH
	DB	0efH
	DB	05dH
	DB	0efH
	DB	05dH
	DB	0efH
	DB	07dH
	DB	0efH
	DB	05dH
	DB	0efH
	DB	07dH
	DB	0efH
	DB	07dH
	DB	0efH
	DB	05dH
	DB	0efH
	DB	07dH
	DB	0efH
	DB	07dH
	DB	0efH
	DB	05dH
	DB	0efH
	DB	07dH
	DB	0efH
	DB	07dH
	DB	0efH
	DB	05dH
	DB	0efH
	DB	07dH
	DB	0efH
	DB	07dH
	DB	0efH
	DB	05dH
	DB	0efH
	DB	07dH
	DB	0efH
	DB	05dH
	DB	0efH
	DB	05dH
	DB	0efH
	DB	07dH
	DB	0efH
	DB	05dH
	DB	0efH
	DB	05dH
	DB	0efH
	DB	07dH
	DB	0efH
	DB	05dH
	DB	0efH
	DB	07dH
	DB	0efH
	DB	05dH
	DB	0efH
	DB	07dH
	DB	0efH
	DB	07dH
	DB	0efH
	DB	05dH
	DB	0efH
	DB	07eH
	DB	0f7H
	DB	05dH
	DB	0efH
	DB	07eH
	DB	0f7H
	DB	07dH
	DB	0efH
	DB	07dH
	DB	0efH
	DB	05dH
	DB	0efH
	DB	07eH
	DB	0f7H
	DB	07dH
	DB	0efH
	DB	07dH
	DB	0efH
	DB	07eH
	DB	0f7H
	DB	07dH
	DB	0efH
	DB	07dH
	DB	0efH
	DB	07dH
	DB	0efH
	DB	07eH
	DB	0f7H
	DB	07dH
	DB	0efH
	DB	07dH
	DB	0efH
	DB	07dH
	DB	0efH
	DB	07dH
	DB	0efH
	DB	07dH
	DB	0efH
	DB	07eH
	DB	0f7H
	DB	07dH
	DB	0efH
	DB	07dH
	DB	0efH
	DB	07dH
	DB	0efH
	DB	07dH
	DB	0efH
	DB	07dH
	DB	0efH
	DB	07eH
	DB	0f7H
	DB	07dH
	DB	0efH
	DB	07dH
	DB	0efH
	DB	07dH
	DB	0efH
	DB	07dH
	DB	0efH
	DB	07dH
	DB	0efH
	DB	07dH
	DB	0efH
	DB	07dH
	DB	0efH
	DB	07eH
	DB	0f7H
	DB	07dH
	DB	0efH
	DB	07dH
	DB	0efH
	DB	07dH
	DB	0efH
	DB	07dH
	DB	0efH
	DB	07eH
	DB	0f7H
	DB	07dH
	DB	0efH
	DB	07dH
	DB	0efH
	DB	07dH
	DB	0efH
	DB	07dH
	DB	0efH
	DB	07eH
	DB	0f7H
	DB	07dH
	DB	0efH
	DB	07dH
	DB	0efH
	DB	07dH
	DB	0efH
	DB	07dH
	DB	0efH
	DB	07dH
	DB	0efH
	DB	07dH
	DB	0efH
	DB	07dH
	DB	0efH
	DB	07dH
	DB	0efH
	DB	07dH
	DB	0efH
	DB	07eH
	DB	0f7H
	DB	07dH
	DB	0efH
	DB	07eH
	DB	0f7H
	DB	07dH
	DB	0efH
	DB	07dH
	DB	0efH
	DB	07dH
	DB	0efH
	DB	07dH
	DB	0efH
	DB	07dH
	DB	0efH
	DB	07dH
	DB	0efH
	DB	07dH
	DB	0efH
	DB	07dH
	DB	0efH
	DB	07eH
	DB	0f7H
	DB	07dH
	DB	0efH
	DB	07dH
	DB	0efH
	DB	07eH
	DB	0f7H
	DB	07dH
	DB	0efH
	DB	07dH
	DB	0efH
	DB	07eH
	DB	0f7H
	DB	07eH
	DB	0f7H
	DB	07dH
	DB	0efH
	DB	07dH
	DB	0efH
	DB	07dH
	DB	0efH
	DB	07dH
	DB	0efH
	DB	07eH
	DB	0f7H
	DB	07dH
	DB	0efH
	DB	07dH
	DB	0efH
	DB	07dH
	DB	0efH
	DB	07eH
	DB	0f7H
	DB	07dH
	DB	0efH
	DB	07eH
	DB	0f7H
	DB	07dH
	DB	0efH
	DB	07dH
	DB	0efH
	DB	07eH
	DB	0f7H
	DB	07dH
	DB	0efH
	DB	07dH
	DB	0efH
	DB	07eH
	DB	0f7H
	DB	07dH
	DB	0efH
	DB	07dH
	DB	0efH
	DB	07eH
	DB	0f7H
	DB	07dH
	DB	0efH
	DB	07dH
	DB	0efH
	DB	07eH
	DB	0f7H
	DB	07dH
	DB	0efH
	DB	07eH
	DB	0f7H
	DB	07dH
	DB	0efH
	DB	07dH
	DB	0efH
	DB	07dH
	DB	0efH
	DB	07dH
	DB	0efH
	DB	07dH
	DB	0efH
	DB	07eH
	DB	0f7H
	DB	07dH
	DB	0efH
	DB	07dH
	DB	0efH
	DB	07dH
	DB	0efH
	DB	07eH
	DB	0f7H
	DB	07dH
	DB	0efH
	DB	07dH
	DB	0efH
	DB	07eH
	DB	0f7H
	DB	07dH
	DB	0efH
	DB	07dH
	DB	0efH
	DB	07dH
	DB	0efH
	DB	07eH
	DB	0f7H
	DB	07dH
	DB	0efH
	DB	07dH
	DB	0efH
	DB	07eH
	DB	0f7H
	DB	07dH
	DB	0efH
	DB	07dH
	DB	0efH
	DB	07dH
	DB	0efH
	DB	07dH
	DB	0efH
	DB	07dH
	DB	0efH
	DB	07dH
	DB	0efH
	DB	07eH
	DB	0f7H
	DB	07dH
	DB	0efH
	DB	07dH
	DB	0efH
	DB	07dH
	DB	0efH
	DB	07eH
	DB	0f7H
	DB	07dH
	DB	0efH
	DB	07dH
	DB	0efH
	DB	07eH
	DB	0f7H
	DB	07dH
	DB	0efH
	DB	07dH
	DB	0efH
	DB	07dH
	DB	0efH
	DB	07dH
	DB	0efH
	DB	07eH
	DB	0f7H
	DB	07dH
	DB	0efH
	DB	07dH
	DB	0efH
	DB	07dH
	DB	0efH
	DB	07dH
	DB	0efH
	DB	07dH
	DB	0efH
	DB	07dH
	DB	0efH
	DB	07dH
	DB	0efH
	DB	07eH
	DB	0f7H
	DB	07dH
	DB	0efH
	DB	07dH
	DB	0efH
	DB	07eH
	DB	0f7H
	DB	07dH
	DB	0efH
	DB	07dH
	DB	0efH
	DB	07dH
	DB	0efH
	DB	07eH
	DB	0f7H
	DB	07dH
	DB	0efH
	DB	07eH
	DB	0f7H
	DB	07dH
	DB	0efH
	DB	07dH
	DB	0efH
	DB	07eH
	DB	0f7H
	DB	07dH
	DB	0efH
	DB	07dH
	DB	0efH
	DB	07eH
	DB	0f7H
	DB	07dH
	DB	0efH
	DB	07dH
	DB	0efH
	DB	07eH
	DB	0f7H
	DB	07dH
	DB	0efH
	DB	07dH
	DB	0efH
	DB	07dH
	DB	0efH
	DB	07dH
	DB	0efH
	DB	07eH
	DB	0f7H
	DB	07dH
	DB	0efH
	DB	07dH
	DB	0efH
	DB	07eH
	DB	0f7H
	DB	07dH
	DB	0efH
	DB	07dH
	DB	0efH
	DB	07eH
	DB	0f7H
	DB	07dH
	DB	0efH
	DB	07dH
	DB	0efH
	DB	07eH
	DB	0f7H
	DB	07eH
	DB	0f7H
	DB	07dH
	DB	0efH
	DB	07eH
	DB	0f7H
	DB	07dH
	DB	0efH
	DB	07dH
	DB	0efH
	DB	07dH
	DB	0efH
	DB	07dH
	DB	0efH
	DB	07dH
	DB	0efH
	DB	07dH
	DB	0efH
	DB	07dH
	DB	0efH
	DB	07eH
	DB	0f7H
	DB	07dH
	DB	0efH
	DB	07dH
	DB	0efH
	DB	07eH
	DB	0f7H
	DB	07dH
	DB	0efH
	DB	07dH
	DB	0efH
	DB	07eH
	DB	0f7H
	DB	07dH
	DB	0efH
	DB	07dH
	DB	0efH
	DB	07dH
	DB	0efH
	DB	07dH
	DB	0efH
	DB	07eH
	DB	0f7H
	DB	07dH
	DB	0efH
	DB	07dH
	DB	0efH
	DB	07dH
	DB	0efH
	DB	07dH
	DB	0efH
	DB	07eH
	DB	0f7H
	DB	07dH
	DB	0efH
	DB	07eH
	DB	0f7H
	DB	07dH
	DB	0efH
	DB	07eH
	DB	0f7H
	DB	07dH
	DB	0efH
	DB	07eH
	DB	0f7H
	DB	07dH
	DB	0efH
	DB	07dH
	DB	0efH
	DB	07dH
	DB	0efH
	DB	07eH
	DB	0f7H
	DB	07dH
	DB	0efH
	DB	07dH
	DB	0efH
	DB	07eH
	DB	0f7H
	DB	07dH
	DB	0efH
	DB	07eH
	DB	0f7H
	DB	07dH
	DB	0efH
	DB	07dH
	DB	0efH
	DB	07eH
	DB	0f7H
	DB	07dH
	DB	0efH
	DB	07dH
	DB	0efH
	DB	07eH
	DB	0f7H
	DB	07dH
	DB	0efH
	DB	07dH
	DB	0efH
	DB	07eH
	DB	0f7H
	DB	07dH
	DB	0efH
	DB	07eH
	DB	0f7H
	DB	07dH
	DB	0efH
	DB	07dH
	DB	0efH
	DB	07eH
	DB	0f7H
	DB	07dH
	DB	0efH
	DB	07dH
	DB	0efH
	DB	07dH
	DB	0efH
	DB	07dH
	DB	0efH
	DB	07dH
	DB	0efH
	DB	07dH
	DB	0efH
	DB	07eH
	DB	0f7H
	DB	07dH
	DB	0efH
	DB	07eH
	DB	0f7H
	DB	07dH
	DB	0efH
	DB	07dH
	DB	0efH
	DB	07dH
	DB	0efH
	DB	07eH
	DB	0f7H
	DB	07eH
	DB	0f7H
	DB	07dH
	DB	0efH
	DB	07dH
	DB	0efH
	DB	07eH
	DB	0f7H
	DB	07dH
	DB	0efH
	DB	07dH
	DB	0efH
	DB	07eH
	DB	0f7H
	DB	07dH
	DB	0efH
	DB	07dH
	DB	0efH
	DB	07eH
	DB	0f7H
	DB	07dH
	DB	0efH
	DB	07dH
	DB	0efH
	DB	07dH
	DB	0efH
	DB	07dH
	DB	0efH
	DB	07dH
	DB	0efH
	DB	07eH
	DB	0f7H
	DB	07dH
	DB	0efH
	DB	07dH
	DB	0efH
	DB	07eH
	DB	0f7H
	DB	07dH
	DB	0efH
	DB	07dH
	DB	0efH
	DB	07dH
	DB	0efH
	DB	07dH
	DB	0efH
	DB	07dH
	DB	0efH
	DB	07dH
	DB	0efH
	DB	07dH
	DB	0efH
	DB	07dH
	DB	0efH
	DB	07eH
	DB	0f7H
	DB	07dH
	DB	0efH
	DB	07dH
	DB	0efH
	DB	07eH
	DB	0f7H
	DB	07dH
	DB	0efH
	DB	07dH
	DB	0efH
	DB	07dH
	DB	0efH
	DB	07eH
	DB	0f7H
	DB	07dH
	DB	0efH
	DB	07dH
	DB	0efH
	DB	07dH
	DB	0efH
	DB	07dH
	DB	0efH
	DB	07dH
	DB	0efH
	DB	07eH
	DB	0f7H
	DB	07dH
	DB	0efH
	DB	07dH
	DB	0efH
	DB	07eH
	DB	0f7H
	DB	07dH
	DB	0efH
	DB	07dH
	DB	0efH
	DB	07eH
	DB	0f7H
	DB	07dH
	DB	0efH
	DB	07dH
	DB	0efH
	DB	07eH
	DB	0f7H
	DB	07dH
	DB	0efH
	DB	07dH
	DB	0efH
	DB	07eH
	DB	0f7H
	DB	07dH
	DB	0efH
	DB	07dH
	DB	0efH
	DB	07eH
	DB	0f7H
	DB	07dH
	DB	0efH
	DB	07dH
	DB	0efH
	DB	07dH
	DB	0efH
	DB	07dH
	DB	0efH
	DB	07dH
	DB	0efH
	DB	07eH
	DB	0f7H
	DB	07dH
	DB	0efH
	DB	07dH
	DB	0efH
	DB	07dH
	DB	0efH
	DB	07dH
	DB	0efH
	DB	07dH
	DB	0efH
	DB	07dH
	DB	0efH
	DB	07eH
	DB	0f7H
	DB	07dH
	DB	0efH
	DB	07dH
	DB	0efH
	DB	07eH
	DB	0f7H
	DB	07dH
	DB	0efH
	DB	07dH
	DB	0efH
	DB	07dH
	DB	0efH
	DB	07dH
	DB	0efH
	DB	07dH
	DB	0efH
	DB	07dH
	DB	0efH
	DB	07dH
	DB	0efH
	DB	07eH
	DB	0f7H
	DB	07dH
	DB	0efH
	DB	07dH
	DB	0efH
	DB	07eH
	DB	0f7H
	DB	07dH
	DB	0efH
	DB	07dH
	DB	0efH
	DB	07eH
	DB	0f7H
	DB	07dH
	DB	0efH
	DB	07dH
	DB	0efH
	DB	07eH
	DB	0f7H
	DB	07dH
	DB	0efH
	DB	07dH
	DB	0efH
	DB	07eH
	DB	0f7H
	DB	07dH
	DB	0efH
	DB	07dH
	DB	0efH
	DB	07dH
	DB	0efH
	DB	07dH
	DB	0efH
	DB	07dH
	DB	0efH
	DB	07dH
	DB	0efH
	DB	07eH
	DB	0f7H
	DB	07dH
	DB	0efH
	DB	07dH
	DB	0efH
	DB	07dH
	DB	0efH
	DB	07eH
	DB	0f7H
	DB	07dH
	DB	0efH
	DB	07dH
	DB	0efH
	DB	07eH
	DB	0f7H
	DB	07dH
	DB	0efH
	DB	07dH
	DB	0efH
	DB	07eH
	DB	0f7H
	DB	07dH
	DB	0efH
	DB	07dH
	DB	0efH
	DB	07dH
	DB	0efH
	DB	07dH
	DB	0efH
	DB	07eH
	DB	0f7H
	DB	07dH
	DB	0efH
	DB	07dH
	DB	0efH
	DB	07eH
	DB	0f7H
	DB	07dH
	DB	0efH
	DB	07dH
	DB	0efH
	DB	07eH
	DB	0f7H
	DB	07dH
	DB	0efH
	DB	07dH
	DB	0efH
	DB	07dH
	DB	0efH
	DB	07eH
	DB	0f7H
	DB	07eH
	DB	0f7H
	DB	07dH
	DB	0efH
	DB	07dH
	DB	0efH
	DB	07dH
	DB	0efH
	DB	07dH
	DB	0efH
	DB	07dH
	DB	0efH
	DB	07dH
	DB	0efH
	DB	07dH
	DB	0efH
	DB	07dH
	DB	0efH
	DB	07eH
	DB	0f7H
	DB	07dH
	DB	0efH
	DB	07eH
	DB	0f7H
	DB	07dH
	DB	0efH
	DB	07dH
	DB	0efH
	DB	07dH
	DB	0efH
	DB	07eH
	DB	0f7H
	DB	07dH
	DB	0efH
	DB	07dH
	DB	0efH
	DB	07dH
	DB	0efH
	DB	07dH
	DB	0efH
	DB	07dH
	DB	0efH
	DB	07eH
	DB	0f7H
	DB	07dH
	DB	0efH
	DB	07eH
	DB	0f7H
	DB	07dH
	DB	0efH
	DB	07dH
	DB	0efH
	DB	07dH
	DB	0efH
	DB	07dH
	DB	0efH
	DB	07eH
	DB	0f7H
	DB	07dH
	DB	0efH
	DB	07dH
	DB	0efH
	DB	07eH
	DB	0f7H
	DB	07dH
	DB	0efH
	DB	07dH
	DB	0efH
	DB	07dH
	DB	0efH
	DB	07dH
	DB	0efH
	DB	07dH
	DB	0efH
	DB	07eH
	DB	0f7H
	DB	07dH
	DB	0efH
	DB	07dH
	DB	0efH
	DB	07eH
	DB	0f7H
	DB	07dH
	DB	0efH
	DB	07dH
	DB	0efH
	DB	07eH
	DB	0f7H
	DB	07eH
	DB	0f7H
	DB	07dH
	DB	0efH
	DB	07dH
	DB	0efH
	DB	07dH
	DB	0efH
	DB	07dH
	DB	0efH
	DB	07dH
	DB	0efH
	DB	07dH
	DB	0efH
	DB	07eH
	DB	0f7H
	DB	07dH
	DB	0efH
	DB	07eH
	DB	0f7H
	DB	07dH
	DB	0efH
	DB	07dH
	DB	0efH
	DB	07eH
	DB	0f7H
	DB	07dH
	DB	0efH
	DB	07dH
	DB	0efH
	DB	07dH
	DB	0efH
	DB	07dH
	DB	0efH
	DB	07dH
	DB	0efH
	DB	07dH
	DB	0efH
	DB	07dH
	DB	0efH
	DB	07dH
	DB	0efH
	DB	07dH
	DB	0efH
	DB	07dH
	DB	0efH
	DB	07dH
	DB	0efH
	DB	07dH
	DB	0efH
	DB	07dH
	DB	0efH
	DB	07eH
	DB	0f7H
	DB	07dH
	DB	0efH
	DB	07eH
	DB	0f7H
	DB	07dH
	DB	0efH
	DB	07dH
	DB	0efH
	DB	07eH
	DB	0f7H
	DB	07dH
	DB	0efH
	DB	07dH
	DB	0efH
	DB	07eH
	DB	0f7H
	DB	07dH
	DB	0efH
	DB	07dH
	DB	0efH
	DB	07eH
	DB	0f7H
	DB	05dH
	DB	0efH
	DB	07dH
	DB	0efH
	DB	05eH
	DB	0f7H
	DB	05dH
	DB	0efH
	DB	07dH
	DB	0efH
	DB	05eH
	DB	0f7H
	DB	05dH
	DB	0efH
	DB	07dH
	DB	0efH
	DB	05eH
	DB	0f7H
	DB	05eH
	DB	0f7H
	DB	05dH
	DB	0efH
	DB	07dH
	DB	0efH
	DB	05dH
	DB	0efH
	DB	05eH
	DB	0f7H
	DB	07dH
	DB	0efH
	DB	07dH
	DB	0efH
	DB	05eH
	DB	0f7H
	DB	07dH
	DB	0efH
	DB	05dH
	DB	0efH
	DB	07eH
	DB	0f7H
	DB	05eH
	DB	0f7H
	DB	07dH
	DB	0efH
	DB	05eH
	DB	0f7H
	DB	07dH
	DB	0efH
	DB	05eH
	DB	0f7H
	DB	05dH
	DB	0efH
	DB	07dH
	DB	0efH
	DB	05eH
	DB	0f7H
	DB	05dH
	DB	0efH
	DB	07dH
	DB	0efH
	DB	05dH
	DB	0efH
	DB	05dH
	DB	0efH
	DB	07dH
	DB	0efH
	DB	05dH
	DB	0efH
	DB	07eH
	DB	0f7H
	DB	07dH
	DB	0efH
	DB	07dH
	DB	0efH
	DB	07eH
	DB	0f7H
	DB	05dH
	DB	0efH
	DB	05dH
	DB	0efH
	DB	07dH
	DB	0efH
	DB	05dH
	DB	0efH
	DB	07eH
	DB	0f7H
	DB	07dH
	DB	0efH
	DB	05dH
	DB	0efH
	DB	07eH
	DB	0f7H
	DB	07eH
	DB	0f7H
	DB	07dH
	DB	0efH
	DB	07dH
	DB	0efH
	DB	05dH
	DB	0efH
	DB	05dH
	DB	0efH
	DB	07eH
	DB	0f7H
	DB	07dH
	DB	0efH
	DB	07dH
	DB	0efH
	DB	07eH
	DB	0f7H
	DB	07dH
	DB	0efH
	DB	07eH
	DB	0f7H
	DB	07eH
	DB	0f7H
	DB	07dH
	DB	0efH
	DB	07eH
	DB	0f7H
	DB	07dH
	DB	0efH
	DB	07dH
	DB	0efH
	DB	07eH
	DB	0f7H
	DB	07dH
	DB	0efH
	DB	07dH
	DB	0efH
	DB	07eH
	DB	0f7H
	DB	07dH
	DB	0efH
	DB	07dH
	DB	0efH
	DB	07eH
	DB	0f7H
	DB	07dH
	DB	0efH
	DB	07eH
	DB	0f7H
	DB	07dH
	DB	0efH
	DB	07eH
	DB	0f7H
	DB	07eH
	DB	0f7H
	DB	07dH
	DB	0efH
	DB	07eH
	DB	0f7H
	DB	07dH
	DB	0efH
	DB	07eH
	DB	0f7H
	DB	07eH
	DB	0f7H
	DB	07eH
	DB	0f7H
	DB	07dH
	DB	0efH
	DB	07eH
	DB	0f7H
	DB	07dH
	DB	0efH
	DB	07dH
	DB	0efH
	DB	07eH
	DB	0f7H
	DB	07eH
	DB	0f7H
	DB	07dH
	DB	0efH
	DB	07eH
	DB	0f7H
	DB	07eH
	DB	0f7H
	DB	07dH
	DB	0efH
	DB	07eH
	DB	0f7H
	DB	07dH
	DB	0efH
	DB	07dH
	DB	0efH
	DB	07eH
	DB	0f7H
	DB	07dH
	DB	0efH
	DB	07dH
	DB	0efH
	DB	07eH
	DB	0f7H
	DB	07dH
	DB	0efH
	DB	07dH
	DB	0efH
	DB	07eH
	DB	0f7H
	DB	07dH
	DB	0efH
	DB	07eH
	DB	0f7H
	DB	07eH
	DB	0f7H
	DB	07dH
	DB	0efH
	DB	07eH
	DB	0f7H
	DB	07dH
	DB	0efH
	DB	07eH
	DB	0f7H
	DB	07eH
	DB	0f7H
	DB	05dH
	DB	0efH
	DB	07dH
	DB	0efH
	DB	07eH
	DB	0f7H
	DB	05dH
	DB	0efH
	DB	07eH
	DB	0f7H
	DB	07dH
	DB	0efH
	DB	07dH
	DB	0efH
	DB	07dH
	DB	0efH
	DB	07eH
	DB	0f7H
	DB	07dH
	DB	0efH
	DB	07eH
	DB	0f7H
	DB	07dH
	DB	0efH
	DB	07eH
	DB	0f7H
	DB	07dH
	DB	0efH
	DB	07eH
	DB	0f7H
	DB	07dH
	DB	0efH
	DB	07eH
	DB	0f7H
	DB	07dH
	DB	0efH
	DB	07dH
	DB	0efH
	DB	07eH
	DB	0f7H
	DB	07eH
	DB	0f7H
	DB	07dH
	DB	0efH
	DB	07eH
	DB	0f7H
	DB	07dH
	DB	0efH
	DB	07eH
	DB	0f7H
	DB	07dH
	DB	0efH
	DB	07eH
	DB	0f7H
	DB	07dH
	DB	0efH
	DB	07dH
	DB	0efH
	DB	07eH
	DB	0f7H
	DB	07dH
	DB	0efH
	DB	07eH
	DB	0f7H
	DB	07dH
	DB	0efH
	DB	07eH
	DB	0f7H
	DB	07dH
	DB	0efH
	DB	07dH
	DB	0efH
	DB	07eH
	DB	0f7H
	DB	07dH
	DB	0efH
	DB	07eH
	DB	0f7H
	DB	07eH
	DB	0f7H
	DB	07dH
	DB	0efH
	DB	07eH
	DB	0f7H
	DB	07dH
	DB	0efH
	DB	07eH
	DB	0f7H
	DB	07dH
	DB	0efH
	DB	07dH
	DB	0efH
	DB	07eH
	DB	0f7H
	DB	07dH
	DB	0efH
	DB	07dH
	DB	0efH
	DB	07eH
	DB	0f7H
	DB	07dH
	DB	0efH
	DB	07dH
	DB	0efH
	DB	07eH
	DB	0f7H
	DB	07dH
	DB	0efH
	DB	07dH
	DB	0efH
	DB	07eH
	DB	0f7H
	DB	07dH
	DB	0efH
	DB	07eH
	DB	0f7H
	DB	07eH
	DB	0f7H
	DB	07dH
	DB	0efH
	DB	07eH
	DB	0f7H
	DB	07eH
	DB	0f7H
	DB	07dH
	DB	0efH
	DB	07dH
	DB	0efH
	DB	07eH
	DB	0f7H
	DB	07dH
	DB	0efH
	DB	07dH
	DB	0efH
	DB	07eH
	DB	0f7H
	DB	07dH
	DB	0efH
	DB	07dH
	DB	0efH
	DB	07eH
	DB	0f7H
	DB	07dH
	DB	0efH
	DB	07dH
	DB	0efH
	DB	07eH
	DB	0f7H
	DB	07dH
	DB	0efH
	DB	07eH
	DB	0f7H
	DB	07dH
	DB	0efH
	DB	07dH
	DB	0efH
	DB	07eH
	DB	0f7H
	DB	07dH
	DB	0efH
	DB	07dH
	DB	0efH
	DB	07eH
	DB	0f7H
	DB	07eH
	DB	0f7H
	DB	07dH
	DB	0efH
	DB	07eH
	DB	0f7H
	DB	07dH
	DB	0efH
	DB	07eH
	DB	0f7H
	DB	07dH
	DB	0efH
	DB	07dH
	DB	0efH
	DB	07eH
	DB	0f7H
	DB	07dH
	DB	0efH
	DB	07dH
	DB	0efH
	DB	07eH
	DB	0f7H
	DB	07eH
	DB	0f7H
	DB	07dH
	DB	0efH
	DB	07dH
	DB	0efH
	DB	05eH
	DB	0f7H
	DB	07dH
	DB	0efH
	DB	07dH
	DB	0efH
	DB	05eH
	DB	0f7H
	DB	07eH
	DB	0f7H
	DB	07dH
	DB	0efH
	DB	07eH
	DB	0f7H
	DB	07eH
	DB	0f7H
	DB	07dH
	DB	0efH
	DB	07eH
	DB	0f7H
	DB	07dH
	DB	0efH
	DB	07dH
	DB	0efH
	DB	07eH
	DB	0f7H
	DB	07eH
	DB	0f7H
	DB	07dH
	DB	0efH
	DB	07eH
	DB	0f7H
	DB	07eH
	DB	0f7H
	DB	07dH
	DB	0efH
	DB	07eH
	DB	0f7H
	DB	07eH
	DB	0f7H
	DB	07dH
	DB	0efH
	DB	07eH
	DB	0f7H
	DB	07dH
	DB	0efH
	DB	07eH
	DB	0f7H
	DB	07eH
	DB	0f7H
	DB	07dH
	DB	0efH
	DB	07dH
	DB	0efH
	DB	07eH
	DB	0f7H
	DB	07dH
	DB	0efH
	DB	07dH
	DB	0efH
	DB	07eH
	DB	0f7H
	DB	05dH
	DB	0efH
	DB	07dH
	DB	0efH
	DB	07eH
	DB	0f7H
	DB	07eH
	DB	0f7H
	DB	07dH
	DB	0efH
	DB	07eH
	DB	0f7H
	DB	07dH
	DB	0efH
	DB	07dH
	DB	0efH
	DB	07eH
	DB	0f7H
	DB	07dH
	DB	0efH
	DB	05dH
	DB	0efH
	DB	07eH
	DB	0f7H
	DB	07dH
	DB	0efH
	DB	05eH
	DB	0f7H
	DB	07dH
	DB	0efH
	DB	07dH
	DB	0efH
	DB	07eH
	DB	0f7H
	DB	07dH
	DB	0efH
	DB	07dH
	DB	0efH
	DB	07dH
	DB	0efH
	DB	07eH
	DB	0f7H
	DB	07dH
	DB	0efH
	DB	07dH
	DB	0efH
	DB	07eH
	DB	0f7H
	DB	07dH
	DB	0efH
	DB	07eH
	DB	0f7H
	DB	07eH
	DB	0f7H
	DB	07dH
	DB	0efH
	DB	07eH
	DB	0f7H
	DB	07dH
	DB	0efH
	DB	07eH
	DB	0f7H
	DB	07dH
	DB	0efH
	DB	07dH
	DB	0efH
	DB	07eH
	DB	0f7H
	DB	07dH
	DB	0efH
	DB	07eH
	DB	0f7H
	DB	07dH
	DB	0efH
	DB	07dH
	DB	0efH
	DB	07eH
	DB	0f7H
	DB	07dH
	DB	0efH
	DB	07eH
	DB	0f7H
	DB	07dH
	DB	0efH
	DB	07dH
	DB	0efH
	DB	07dH
	DB	0efH
	DB	07eH
	DB	0f7H
	DB	07dH
	DB	0efH
	DB	07eH
	DB	0f7H
	DB	07dH
	DB	0efH
	DB	07eH
	DB	0f7H
	DB	07eH
	DB	0f7H
	DB	07dH
	DB	0efH
	DB	07eH
	DB	0f7H
	DB	07eH
	DB	0f7H
	DB	07dH
	DB	0efH
	DB	07eH
	DB	0f7H
	DB	07eH
	DB	0f7H
	DB	07dH
	DB	0efH
	DB	07eH
	DB	0f7H
	DB	07dH
	DB	0efH
	DB	07eH
	DB	0f7H
	DB	07eH
	DB	0f7H
	DB	07dH
	DB	0efH
	DB	07eH
	DB	0f7H
	DB	07eH
	DB	0f7H
	DB	07dH
	DB	0efH
	DB	07dH
	DB	0efH
	DB	07eH
	DB	0f7H
	DB	07dH
	DB	0efH
	DB	07eH
	DB	0f7H
	DB	07dH
	DB	0efH
	DB	07eH
	DB	0f7H
	DB	07dH
	DB	0efH
	DB	07dH
	DB	0efH
	DB	07eH
	DB	0f7H
	DB	07dH
	DB	0efH
	DB	07eH
	DB	0f7H
	DB	07eH
	DB	0f7H
	DB	07dH
	DB	0efH
	DB	07eH
	DB	0f7H
	DB	07dH
	DB	0efH
	DB	07dH
	DB	0efH
	DB	07eH
	DB	0f7H
	DB	07dH
	DB	0efH
	DB	07dH
	DB	0efH
	DB	07eH
	DB	0f7H
	DB	07dH
	DB	0efH
	DB	07dH
	DB	0efH
	DB	07eH
	DB	0f7H
	DB	07eH
	DB	0f7H
	DB	07dH
	DB	0efH
	DB	07eH
	DB	0f7H
	DB	07dH
	DB	0efH
	DB	07dH
	DB	0efH
	DB	07eH
	DB	0f7H
	DB	07dH
	DB	0efH
	DB	07eH
	DB	0f7H
	DB	07eH
	DB	0f7H
	DB	07dH
	DB	0efH
	DB	07eH
	DB	0f7H
	DB	07dH
	DB	0efH
	DB	07eH
	DB	0f7H
	DB	07eH
	DB	0f7H
	DB	07dH
	DB	0efH
	DB	07eH
	DB	0f7H
	DB	07eH
	DB	0f7H
	DB	07dH
	DB	0efH
	DB	07dH
	DB	0efH
	DB	07eH
	DB	0f7H
	DB	07dH
	DB	0efH
	DB	07eH
	DB	0f7H
	DB	07dH
	DB	0efH
	DB	07eH
	DB	0f7H
	DB	07eH
	DB	0f7H
	DB	07dH
	DB	0efH
	DB	07eH
	DB	0f7H
	DB	07eH
	DB	0f7H
	DB	07dH
	DB	0efH
	DB	07dH
	DB	0efH
	DB	07eH
	DB	0f7H
	DB	07dH
	DB	0efH
	DB	07dH
	DB	0efH
	DB	07eH
	DB	0f7H
	DB	07dH
	DB	0efH
	DB	07eH
	DB	0f7H
	DB	07dH
	DB	0efH
	DB	07dH
	DB	0efH
	DB	07eH
	DB	0f7H
	DB	07dH
	DB	0efH
	DB	07dH
	DB	0efH
	DB	07eH
	DB	0f7H
	DB	07dH
	DB	0efH
	DB	07eH
	DB	0f7H
	DB	07dH
	DB	0efH
	DB	07eH
	DB	0f7H
	DB	07dH
	DB	0efH
	DB	07eH
	DB	0f7H
	DB	07dH
	DB	0efH
	DB	07dH
	DB	0efH
	DB	05eH
	DB	0f7H
	DB	07dH
	DB	0efH
	DB	07dH
	DB	0efH
	DB	05eH
	DB	0f7H
	DB	07dH
	DB	0efH
	DB	07dH
	DB	0efH
	DB	07eH
	DB	0f7H
	DB	07dH
	DB	0efH
	DB	07dH
	DB	0efH
	DB	07eH
	DB	0f7H
	DB	07dH
	DB	0efH
	DB	07eH
	DB	0f7H
	DB	07eH
	DB	0f7H
	DB	07dH
	DB	0efH
	DB	07dH
	DB	0efH
	DB	07eH
	DB	0f7H
	DB	07dH
	DB	0efH
	DB	07dH
	DB	0efH
	DB	07dH
	DB	0efH
	DB	07eH
	DB	0f7H
	DB	07dH
	DB	0efH
	DB	07eH
	DB	0f7H
	DB	07dH
	DB	0efH
	DB	05dH
	DB	0efH
	DB	07eH
	DB	0f7H
	DB	07dH
	DB	0efH
	DB	05eH
	DB	0f7H
	DB	07eH
	DB	0f7H
	DB	07dH
	DB	0efH
	DB	05eH
	DB	0f7H
	DB	07eH
	DB	0f7H
	DB	07dH
	DB	0efH
	DB	07dH
	DB	0efH
	DB	07eH
	DB	0f7H
	DB	07dH
	DB	0efH
	DB	07dH
	DB	0efH
	DB	07eH
	DB	0f7H
	DB	07dH
